(dp1
S'pull_up'
p2
F200
sS'contact_area'
p3
F0.0016000000000000001
sS'adc_bias'
p4
F1023
sS'ft'
p5
(lp6
cnumpy.core.multiarray
scalar
p7
(cnumpy
dtype
p8
(S'f4'
I0
I1
tRp9
(I3
S'<'
NNNI-1
I-1
I0
tbS'`\xb1A?'
tRp10
ag7
(g9
S'\xa0\x9fD?'
tRp11
ag7
(g9
S'\xa0\xf55?'
tRp12
ag7
(g9
S'\xe0\xce2?'
tRp13
ag7
(g9
S'`\xaf8?'
tRp14
ag7
(g9
S'`\x88A?'
tRp15
ag7
(g9
S' \x928?'
tRp16
ag7
(g9
S'\xe0\x93@?'
tRp17
ag7
(g9
S'`^:?'
tRp18
ag7
(g9
S' x0?'
tRp19
ag7
(g9
S'\xe0E6?'
tRp20
ag7
(g9
S'\xa0W\x1f?'
tRp21
ag7
(g9
S'\xa0\xb6,?'
tRp22
ag7
(g9
S'\xe0\xfd ?'
tRp23
ag7
(g9
S' `0?'
tRp24
ag7
(g9
S'\xe0\x9b#?'
tRp25
ag7
(g9
S'`\x1e!?'
tRp26
ag7
(g9
S' \x84&?'
tRp27
ag7
(g9
S' \x16"?'
tRp28
ag7
(g9
S'`\x842?'
tRp29
ag7
(g9
S' \xba&?'
tRp30
ag7
(g9
S'\xa0V(?'
tRp31
ag7
(g9
S'`!)?'
tRp32
ag7
(g9
S'\xe0\xd18?'
tRp33
ag7
(g9
S'`\xb8>?'
tRp34
ag7
(g9
S'\xa0~2?'
tRp35
ag7
(g9
S'\xa0\xdc*?'
tRp36
ag7
(g9
S'\xa0#%?'
tRp37
ag7
(g9
S'\xa0\xfc(?'
tRp38
ag7
(g9
S' \x95-?'
tRp39
ag7
(g9
S'\xa0;,?'
tRp40
ag7
(g9
S'\xa0\x88\x1f?'
tRp41
ag7
(g9
S' H\x1b?'
tRp42
ag7
(g9
S'\xe0m!?'
tRp43
ag7
(g9
S'`\xa3+?'
tRp44
ag7
(g9
S'\xe0C$?'
tRp45
ag7
(g9
S'`\x95%?'
tRp46
ag7
(g9
S'`%\x1f?'
tRp47
ag7
(g9
S'\xe0 -?'
tRp48
ag7
(g9
S' \xcc;?'
tRp49
ag7
(g9
S' Ay?'
tRp50
ag7
(g9
S'\xd0\xcc\x95?'
tRp51
ag7
(g9
S'p\xda\xaf?'
tRp52
ag7
(g9
S'\xb0\xf5\xe2?'
tRp53
ag7
(g9
S'\x98R\x1a@'
tRp54
ag7
(g9
S'\xf8O5@'
tRp55
ag7
(g9
S'\xb4*\x94@'
tRp56
ag7
(g9
S'\xd4#\xa7@'
tRp57
ag7
(g9
S',\x96\xcc@'
tRp58
ag7
(g9
S',\xd4\xf1@'
tRp59
ag7
(g9
S'\xaaL\x19A'
tRp60
ag7
(g9
S'\x02\xcf2A'
tRp61
ag7
(g9
S'.\xdbKA'
tRp62
ag7
(g9
S'Z\xcaaA'
tRp63
ag7
(g9
S'\xde\xc0vA'
tRp64
ag7
(g9
S'\xf1G\x85A'
tRp65
ag7
(g9
S'\xc5z\x8dA'
tRp66
ag7
(g9
S'i\x8e\x94A'
tRp67
ag7
(g9
S'\t,\x9bA'
tRp68
ag7
(g9
S'\xb1\xb7\xa2A'
tRp69
ag7
(g9
S'Uu\xabA'
tRp70
ag7
(g9
S'\x81\xb2\xb5A'
tRp71
ag7
(g9
S'k\xac\xbaA'
tRp72
ag7
(g9
S'3\x12\xc6A'
tRp73
ag7
(g9
S's@\xd6A'
tRp74
ag7
(g9
S'#q\xe1A'
tRp75
ag7
(g9
S'\xaf\x9e\xe6A'
tRp76
ag7
(g9
S'/-\xf1A'
tRp77
ag7
(g9
S'\x07.\xfcA'
tRp78
ag7
(g9
S'N\t\x03B'
tRp79
ag7
(g9
S'\xf8\xd0\x08B'
tRp80
ag7
(g9
S'\x86\x19\x0cB'
tRp81
ag7
(g9
S'6f\x0fB'
tRp82
ag7
(g9
S'\xc0\xc4\x10B'
tRp83
ag7
(g9
S'F\xc0\x10B'
tRp84
ag7
(g9
S'z\xa1\x10B'
tRp85
ag7
(g9
S'X\xa4\x0eB'
tRp86
ag7
(g9
S'\xf0E\x0cB'
tRp87
ag7
(g9
S'|\x95\nB'
tRp88
ag7
(g9
S'\n\xd4\x03B'
tRp89
ag7
(g9
S'\x9b:\xfbA'
tRp90
ag7
(g9
S'\xe1W\xedA'
tRp91
ag7
(g9
S'M0\xddA'
tRp92
ag7
(g9
S'\xc7L\xcbA'
tRp93
ag7
(g9
S'\xc9)\xb8A'
tRp94
ag7
(g9
S'%\xfc\xa3A'
tRp95
ag7
(g9
S'u4\x9aA'
tRp96
ag7
(g9
S'\xaa\t|A'
tRp97
ag7
(g9
S'VDKA'
tRp98
ag7
(g9
S'\xa6\x01.A'
tRp99
ag7
(g9
S'\xf2*\x15A'
tRp100
ag7
(g9
S'^d\x00A'
tRp101
ag7
(g9
S'\x8c%\xeb@'
tRp102
ag7
(g9
S'$\xb3\xb7@'
tRp103
ag7
(g9
S'\x94s\xaa@'
tRp104
ag7
(g9
S'\xfc\x15\x87@'
tRp105
ag7
(g9
S'x\x92|@'
tRp106
ag7
(g9
S'hQ\\@'
tRp107
ag7
(g9
S'(\xc2<@'
tRp108
ag7
(g9
S'X\x92*@'
tRp109
ag7
(g9
S'\xc8\x10\x1c@'
tRp110
ag7
(g9
S'\xb8\x9c\x14@'
tRp111
ag7
(g9
S'\xb8\x85\x0e@'
tRp112
ag7
(g9
S'P\x16\xfd?'
tRp113
ag7
(g9
S'\xf0w\xf4?'
tRp114
ag7
(g9
S'\x90T\xed?'
tRp115
ag7
(g9
S'PY\xe2?'
tRp116
ag7
(g9
S'\x10M\xe3?'
tRp117
ag7
(g9
S'\xf0\x82\xec?'
tRp118
ag7
(g9
S'\xb0\xd1\xfe?'
tRp119
ag7
(g9
S'\xa8\x9e\x02@'
tRp120
ag7
(g9
S'Hb,@'
tRp121
ag7
(g9
S'(\x9dW@'
tRp122
ag7
(g9
S'\xf4\x96\x86@'
tRp123
ag7
(g9
S'l\xc9\xa8@'
tRp124
ag7
(g9
S'\x1c\xf3\xcd@'
tRp125
ag7
(g9
S'l\x11\xf2@'
tRp126
ag7
(g9
S'\xb6l\x0bA'
tRp127
ag7
(g9
S'\xa6S\x1eA'
tRp128
ag7
(g9
S'zX2A'
tRp129
ag7
(g9
S'\x1e0IA'
tRp130
ag7
(g9
S'.VcA'
tRp131
ag7
(g9
S'j\xe4}A'
tRp132
ag7
(g9
S'\x93o\x8dA'
tRp133
ag7
(g9
S'\xf9\x94\x9dA'
tRp134
ag7
(g9
S'q\x95\xaeA'
tRp135
ag7
(g9
S'\xf3u\xbfA'
tRp136
ag7
(g9
S'\x11\x9b\xcfA'
tRp137
ag7
(g9
S'\xb3j\xdfA'
tRp138
ag7
(g9
S'5\xb2\xeeA'
tRp139
ag7
(g9
S'\xa1$\xfdA'
tRp140
ag7
(g9
S'\x14\xfd\x04B'
tRp141
ag7
(g9
S'\xe2\xdc\rB'
tRp142
ag7
(g9
S'Z\xe6\x10B'
tRp143
ag7
(g9
S'\xca\xac\x1aB'
tRp144
ag7
(g9
S'\x869!B'
tRp145
ag7
(g9
S"\xa2m'B"
tRp146
ag7
(g9
S'\xb8/-B'
tRp147
ag7
(g9
S'~\x812B'
tRp148
ag7
(g9
S'J*7B'
tRp149
ag7
(g9
S't\x19;B'
tRp150
ag7
(g9
S'$\x1b?B'
tRp151
ag7
(g9
S'\xcc5CB'
tRp152
ag7
(g9
S'2\xefHB'
tRp153
ag7
(g9
S'\xfcFLB'
tRp154
ag7
(g9
S'\xd49OB'
tRp155
ag7
(g9
S'f%PB'
tRp156
ag7
(g9
S'\x18\xc9QB'
tRp157
ag7
(g9
S'\xd6gSB'
tRp158
ag7
(g9
S'\xf6lTB'
tRp159
ag7
(g9
S'\xae\x0bUB'
tRp160
ag7
(g9
S'\xc6mTB'
tRp161
ag7
(g9
S':\xf0RB'
tRp162
ag7
(g9
S'\xea\x17QB'
tRp163
ag7
(g9
S'*dNB'
tRp164
ag7
(g9
S'\xdcGJB'
tRp165
ag7
(g9
S'\xb0\xf5DB'
tRp166
ag7
(g9
S'P ?B'
tRp167
ag7
(g9
S'\xc2I;B'
tRp168
ag7
(g9
S'\x98\xf9,B'
tRp169
ag7
(g9
S'\xa8\x94!B'
tRp170
ag7
(g9
S'D\xd5\x14B'
tRp171
ag7
(g9
S'lr\x06B'
tRp172
ag7
(g9
S'\x1d\xc2\xedA'
tRp173
ag7
(g9
S'\x7fj\xd0A'
tRp174
ag7
(g9
S'/\xc4\xb5A'
tRp175
ag7
(g9
S'\x7f\xd0\x91A'
tRp176
ag7
(g9
S'\x916\x87A'
tRp177
ag7
(g9
S'\x06 TA'
tRp178
ag7
(g9
S'\xce\xb55A'
tRp179
ag7
(g9
S'\xea\x08\x1cA'
tRp180
ag7
(g9
S'n;\x04A'
tRp181
ag7
(g9
S'T\xef\xe0@'
tRp182
ag7
(g9
S'\xf4\xa3\xc0@'
tRp183
ag7
(g9
S'\x1c7\xa7@'
tRp184
ag7
(g9
S'\x84\x8f\x92@'
tRp185
ag7
(g9
S'\x08\x0b|@'
tRp186
ag7
(g9
S'h\xfdS@'
tRp187
ag7
(g9
S'H\x99=@'
tRp188
ag7
(g9
S'HP4@'
tRp189
ag7
(g9
S'\xf8\x88!@'
tRp190
ag7
(g9
S'h\xad\x1a@'
tRp191
ag7
(g9
S'Hq\x16@'
tRp192
ag7
(g9
S'\xf8(\x12@'
tRp193
ag7
(g9
S'\xd8\xbc\x0c@'
tRp194
ag7
(g9
S'\x08\x89\t@'
tRp195
ag7
(g9
S'\xa8k\x03@'
tRp196
ag7
(g9
S'\xd8\xac\x04@'
tRp197
ag7
(g9
S'\xd8\xb2\x06@'
tRp198
ag7
(g9
S'\xf8\xaf\x04@'
tRp199
ag7
(g9
S'h\x94\x07@'
tRp200
ag7
(g9
S'\x98J\x0e@'
tRp201
ag7
(g9
S'\x08\x13\x15@'
tRp202
ag7
(g9
S'X\x12)@'
tRp203
ag7
(g9
S'x[+@'
tRp204
ag7
(g9
S'h\xbb>@'
tRp205
ag7
(g9
S'H=d@'
tRp206
ag7
(g9
S'\x94\x9e\x85@'
tRp207
ag7
(g9
S'\xe4v\x9b@'
tRp208
ag7
(g9
S'\xcc\x13\xb3@'
tRp209
ag7
(g9
S'\xcc\xc4\xd9@'
tRp210
ag7
(g9
S'L@\xe5@'
tRp211
ag7
(g9
S'\x84\xe8\xff@'
tRp212
ag7
(g9
S'\xceZ\x14A'
tRp213
ag7
(g9
S'"\xb7"A'
tRp214
ag7
(g9
S'\x12K3A'
tRp215
ag7
(g9
S'^\x1dDA'
tRp216
ag7
(g9
S'\xce^TA'
tRp217
ag7
(g9
S'"\xa0fA'
tRp218
ag7
(g9
S'V\xd2{A'
tRp219
ag7
(g9
S'\xf1N\x89A'
tRp220
ag7
(g9
S'E\xeb\x94A'
tRp221
ag7
(g9
S'-4\xa1A'
tRp222
ag7
(g9
S'\x07\xbe\xadA'
tRp223
ag7
(g9
S'\xed\xc8\xbaA'
tRp224
ag7
(g9
S'\x0bB\xc9A'
tRp225
ag7
(g9
S'sA\xd8A'
tRp226
ag7
(g9
S'\xe7\xa4\xedA'
tRp227
ag7
(g9
S'\x8b\xa1\xf4A'
tRp228
ag7
(g9
S'\xd0\x06\x01B'
tRp229
ag7
(g9
S'\xd2\x94\nB'
tRp230
ag7
(g9
S'P\xcc\x0fB'
tRp231
ag7
(g9
S'T\xd9\x13B'
tRp232
ag7
(g9
S'\xc49\x17B'
tRp233
ag7
(g9
S'\xc6\xe1\x19B'
tRp234
ag7
(g9
S'\xc6\xa6\x1aB'
tRp235
ag7
(g9
S',q\x1dB'
tRp236
ag7
(g9
S'\xeaZ\x1fB'
tRp237
ag7
(g9
S'\xf4G!B'
tRp238
ag7
(g9
S'V\x0f#B'
tRp239
ag7
(g9
S'\x00\xa3$B'
tRp240
ag7
(g9
S'\xde\xae%B'
tRp241
ag7
(g9
S"j8'B"
tRp242
ag7
(g9
S'\xac\xf1(B'
tRp243
ag7
(g9
S'\x94I*B'
tRp244
ag7
(g9
S'j\xe9+B'
tRp245
ag7
(g9
S'\xd4\xa0,B'
tRp246
ag7
(g9
S'\xf2\x06.B'
tRp247
ag7
(g9
S'\x10\xcd-B'
tRp248
ag7
(g9
S'\x0ef-B'
tRp249
ag7
(g9
S'j\xd0,B'
tRp250
ag7
(g9
S'\x10o,B'
tRp251
ag7
(g9
S'8\xfd)B'
tRp252
ag7
(g9
S'\xb2 %B'
tRp253
ag7
(g9
S'\xcc\xf6\x1fB'
tRp254
ag7
(g9
S'\xf2\x16\x19B'
tRp255
ag7
(g9
S'\xe0m\x10B'
tRp256
ag7
(g9
S'\xd4\x9e\x06B'
tRp257
ag7
(g9
S'\x0b1\xf7A'
tRp258
ag7
(g9
S'\xe5\xb3\xeaA'
tRp259
ag7
(g9
S'Q\x99\xc5A'
tRp260
ag7
(g9
S'\xef\x9b\xadA'
tRp261
ag7
(g9
S'\xdd\xf2\x97A'
tRp262
ag7
(g9
S'\xe72\x84A'
tRp263
ag7
(g9
S'\xd2\x92cA'
tRp264
ag7
(g9
S'\xb6IBA'
tRp265
ag7
(g9
S'\x86\xbf%A'
tRp266
ag7
(g9
S'\x16Y\x0eA'
tRp267
ag7
(g9
S'|\xb1\xf5@'
tRp268
ag7
(g9
S'\x04\xa7\xcf@'
tRp269
ag7
(g9
S'\xac\xc9\xb1@'
tRp270
ag7
(g9
S'\xcc\xdf\x91@'
tRp271
ag7
(g9
S'\xe8y\x7f@'
tRp272
ag7
(g9
S'8\x9eb@'
tRp273
ag7
(g9
S'\x08\xbeZ@'
tRp274
ag7
(g9
S'\xa8\xcd8@'
tRp275
ag7
(g9
S'\xa8\x83.@'
tRp276
ag7
(g9
S'\xc8\x06\x1f@'
tRp277
ag7
(g9
S'Hw\x16@'
tRp278
ag7
(g9
S'X\x8e\x10@'
tRp279
ag7
(g9
S'8\xeb\x0b@'
tRp280
ag7
(g9
S'\xa8\x89\x08@'
tRp281
ag7
(g9
S'x7\x00@'
tRp282
ag7
(g9
S'\xb08\xfb?'
tRp283
ag7
(g9
S'0\xdd\xf3?'
tRp284
ag7
(g9
S'0\xb2\xf4?'
tRp285
ag7
(g9
S'P(\xf5?'
tRp286
ag7
(g9
S'\xd0h\xf2?'
tRp287
ag7
(g9
S'\xb0E\xfa?'
tRp288
ag7
(g9
S'\x90\x8b\xf6?'
tRp289
ag7
(g9
S'p6\xf9?'
tRp290
ag7
(g9
S'\xb8a\x01@'
tRp291
ag7
(g9
S'H_\x07@'
tRp292
ag7
(g9
S'8\xdc\t@'
tRp293
ag7
(g9
S'Ha\x19@'
tRp294
ag7
(g9
S'Xf\x1c@'
tRp295
ag7
(g9
S'\x08\xabB@'
tRp296
ag7
(g9
S'h-j@'
tRp297
ag7
(g9
S'D\xdf\x91@'
tRp298
ag7
(g9
S'\xbc\x9d\xb6@'
tRp299
ag7
(g9
S't\xa2\xe0@'
tRp300
ag7
(g9
S'2c\x06A'
tRp301
ag7
(g9
S'ZD\x1dA'
tRp302
ag7
(g9
S'V\xf34A'
tRp303
ag7
(g9
S'f\xfaMA'
tRp304
ag7
(g9
S'*\xe1hA'
tRp305
ag7
(g9
S'\x136\x89A'
tRp306
ag7
(g9
S'g\xa4\x98A'
tRp307
ag7
(g9
S'\x97\xf9\xa8A'
tRp308
ag7
(g9
S"'t\xb1A"
tRp309
ag7
(g9
S'\xd7B\xc3A'
tRp310
ag7
(g9
S'\x0b\xc2\xd4A'
tRp311
ag7
(g9
S'\xcf\xff\xeeA'
tRp312
ag7
(g9
S'\xadO\xffA'
tRp313
ag7
(g9
S'(b\x03B'
tRp314
ag7
(g9
S't\xfd\nB'
tRp315
ag7
(g9
S'\x1eA\x12B'
tRp316
ag7
(g9
S'\x94\xcc\x18B'
tRp317
ag7
(g9
S'BL"B'
tRp318
ag7
(g9
S"\\\xc2'B"
tRp319
ag7
(g9
S'\\\x07-B'
tRp320
ag7
(g9
S'N\x162B'
tRp321
ag7
(g9
S'\xf8$7B'
tRp322
ag7
(g9
S'l\x95;B'
tRp323
ag7
(g9
S'\x14.?B'
tRp324
ag7
(g9
S'\xe8BBB'
tRp325
ag7
(g9
S'\xf8~CB'
tRp326
ag7
(g9
S'N\x14FB'
tRp327
ag7
(g9
S'2\x01HB'
tRp328
ag7
(g9
S'$bIB'
tRp329
ag7
(g9
S'\x00\x1aJB'
tRp330
ag7
(g9
S'J\xa6KB'
tRp331
ag7
(g9
S'":LB'
tRp332
ag7
(g9
S'@\xceLB'
tRp333
ag7
(g9
S'\xe2\x0fMB'
tRp334
ag7
(g9
S'\x1e\x8cLB'
tRp335
ag7
(g9
S'\xe0hKB'
tRp336
ag7
(g9
S't3IB'
tRp337
ag7
(g9
S'6\xc4EB'
tRp338
ag7
(g9
S'\x9e\xe7@B'
tRp339
ag7
(g9
S'r>:B'
tRp340
ag7
(g9
S'\xc2:2B'
tRp341
ag7
(g9
S'8\xb6(B'
tRp342
ag7
(g9
S'0\x00\x1eB'
tRp343
ag7
(g9
S'\xce\xbb\x12B'
tRp344
ag7
(g9
S'8\xcc\x06B'
tRp345
ag7
(g9
S'_]\xf4A'
tRp346
ag7
(g9
S'q\x0b\xcdA'
tRp347
ag7
(g9
S'\x81\xff\xb3A'
tRp348
ag7
(g9
S'\xf5+\x9cA'
tRp349
ag7
(g9
S'\xb3\xe4\x85A'
tRp350
ag7
(g9
S'&BdA'
tRp351
ag7
(g9
S'>sAA'
tRp352
ag7
(g9
S'\x12\xb6$A'
tRp353
ag7
(g9
S':4\rA'
tRp354
ag7
(g9
S'\xcc\x8f\xed@'
tRp355
ag7
(g9
S'\xc4\x0f\xca@'
tRp356
ag7
(g9
S'\xf4\xbc\xad@'
tRp357
ag7
(g9
S'\xe4-\x98@'
tRp358
ag7
(g9
S'\x1c\xe3\x86@'
tRp359
ag7
(g9
S'Hko@'
tRp360
ag7
(g9
S'\x08\xd1Q@'
tRp361
ag7
(g9
S'\x88\xfcH@'
tRp362
ag7
(g9
S'H^6@'
tRp363
ag7
(g9
S'xe\x1e@'
tRp364
ag7
(g9
S'\x08\xe4\n@'
tRp365
ag7
(g9
S'\xc8\x87\x06@'
tRp366
ag7
(g9
S'\x90\x8c\xf6?'
tRp367
ag7
(g9
S'\xf0\x0b\xe8?'
tRp368
ag7
(g9
S'\x90-\xe3?'
tRp369
ag7
(g9
S'\xd0\x14\xd3?'
tRp370
ag7
(g9
S'\xb0\x8a\xd2?'
tRp371
ag7
(g9
S'\xb0O\xd4?'
tRp372
ag7
(g9
S'pR\xd3?'
tRp373
ag7
(g9
S'p!\xcd?'
tRp374
ag7
(g9
S'\xb0S\xcc?'
tRp375
ag7
(g9
S'P\xc1\xd1?'
tRp376
ag7
(g9
S'\x10\x00\xd7?'
tRp377
ag7
(g9
S'\x90K\xdf?'
tRp378
ag7
(g9
S'0\xeb\xe3?'
tRp379
ag7
(g9
S'\x10\xa0\xfb?'
tRp380
ag7
(g9
S'xM\x08@'
tRp381
ag7
(g9
S'8\xcc\x1a@'
tRp382
ag7
(g9
S'8.5@'
tRp383
ag7
(g9
S'\xc8L[@'
tRp384
ag7
(g9
S'\x84\x10\x84@'
tRp385
ag7
(g9
S'\xdc\x03\x9c@'
tRp386
ag7
(g9
S"\x94'\xb6@"
tRp387
ag7
(g9
S'd\xab\xd3@'
tRp388
ag7
(g9
S'\x04~\xf1@'
tRp389
ag7
(g9
S'\xaa\x1f\x07A'
tRp390
ag7
(g9
S'\xc6\xdb\x16A'
tRp391
ag7
(g9
S'b\x15(A'
tRp392
ag7
(g9
S'*\x8c<A'
tRp393
ag7
(g9
S'\xb6\xe7TA'
tRp394
ag7
(g9
S'\xceXqA'
tRp395
ag7
(g9
S'\xe3\x92\x87A'
tRp396
ag7
(g9
S'\x0b\xc0\x96A'
tRp397
ag7
(g9
S'?\x84\xa6A'
tRp398
ag7
(g9
S'\x05\xf8\xb6A'
tRp399
ag7
(g9
S'5 \xc9A'
tRp400
ag7
(g9
S'q"\xe4A'
tRp401
ag7
(g9
S'\x8f7\xedA'
tRp402
ag7
(g9
S'\x19\xab\xfdA'
tRp403
ag7
(g9
S'\x18\xa4\x0bB'
tRp404
ag7
(g9
S'\xeeq\x13B'
tRp405
ag7
(g9
S'|_\x1bB'
tRp406
ag7
(g9
S'f"#B'
tRp407
ag7
(g9
S'\x0e\xf2*B'
tRp408
ag7
(g9
S'\x82@2B'
tRp409
ag7
(g9
S'\xfej8B'
tRp410
ag7
(g9
S'\xe6\xed=B'
tRp411
ag7
(g9
S'\x9a\x0fCB'
tRp412
ag7
(g9
S'\x00\x8dGB'
tRp413
ag7
(g9
S'\xf8\x84KB'
tRp414
ag7
(g9
S':\xf3NB'
tRp415
ag7
(g9
S'B4RB'
tRp416
ag7
(g9
S'\xa2pUB'
tRp417
ag7
(g9
S'\xa2\xa2XB'
tRp418
ag7
(g9
S'P\xc0[B'
tRp419
ag7
(g9
S'>\xa5^B'
tRp420
ag7
(g9
S'\x0e\xe4`B'
tRp421
ag7
(g9
S'z\xe3cB'
tRp422
ag7
(g9
S'xhdB'
tRp423
ag7
(g9
S'XadB'
tRp424
ag7
(g9
S'\x9cjdB'
tRp425
ag7
(g9
S'l\x8bbB'
tRp426
ag7
(g9
S'\xdaf^B'
tRp427
ag7
(g9
S'\xa8\xb5XB'
tRp428
ag7
(g9
S'\xa8\xc3MB'
tRp429
ag7
(g9
S'\x12TDB'
tRp430
ag7
(g9
S'\xb0\xd29B'
tRp431
ag7
(g9
S'D\xc9(B'
tRp432
ag7
(g9
S'@6\x1dB'
tRp433
ag7
(g9
S'\\\x15\x11B'
tRp434
ag7
(g9
S'$\x9f\nB'
tRp435
ag7
(g9
S'm\x02\xfdA'
tRp436
ag7
(g9
S'!\x85\xe5A'
tRp437
ag7
(g9
S'\x89\xe3\xc2A'
tRp438
ag7
(g9
S')\xd8\xb7A'
tRp439
ag7
(g9
S'M\xc4\x97A'
tRp440
ag7
(g9
S'u\xd4\x81A'
tRp441
ag7
(g9
S'\xae@]A'
tRp442
ag7
(g9
S'\x1a\x1b;A'
tRp443
ag7
(g9
S'\xde\xd9\x1eA'
tRp444
ag7
(g9
S'*/\x07A'
tRp445
ag7
(g9
S'\x94\xa8\xe3@'
tRp446
ag7
(g9
S't\xc5\xbe@'
tRp447
ag7
(g9
S'\xac\x16\xa0@'
tRp448
ag7
(g9
S'4\xf5\x87@'
tRp449
ag7
(g9
S'8\x95h@'
tRp450
ag7
(g9
S'\xf8\x83I@'
tRp451
ag7
(g9
S'\xf8\xd0-@'
tRp452
ag7
(g9
S'\xf8P\x18@'
tRp453
ag7
(g9
S'8S\x07@'
tRp454
ag7
(g9
S'P\x80\xf4?'
tRp455
ag7
(g9
S'pB\xdd?'
tRp456
ag7
(g9
S'\x90\xc0\xc2?'
tRp457
ag7
(g9
S'Ps\xaf?'
tRp458
ag7
(g9
S'p\x17\xa2?'
tRp459
ag7
(g9
S'\xf0\x87\x9c?'
tRp460
ag7
(g9
S'0\x15\x97?'
tRp461
ag7
(g9
S'\xf0.\x8c?'
tRp462
ag7
(g9
S'\x90\x90\x89?'
tRp463
ag7
(g9
S'\x10\xae\x86?'
tRp464
ag7
(g9
S' >}?'
tRp465
ag7
(g9
S'\xa0Tw?'
tRp466
ag7
(g9
S'\xa0\xfem?'
tRp467
ag7
(g9
S' zz?'
tRp468
ag7
(g9
S'P\xdf\x82?'
tRp469
ag7
(g9
S'\x90p\x80?'
tRp470
ag7
(g9
S'\xd0@\x83?'
tRp471
ag7
(g9
S'\xb0\xbf\x8f?'
tRp472
ag7
(g9
S'0v\xac?'
tRp473
ag7
(g9
S'\xf0\xe4\xcf?'
tRp474
ag7
(g9
S'P\xa0\xf6?'
tRp475
ag7
(g9
S'\x08\x9e\x19@'
tRp476
ag7
(g9
S'\x98PD@'
tRp477
ag7
(g9
S'H\xbd{@'
tRp478
ag7
(g9
S'<\xbb\x9e@'
tRp479
ag7
(g9
S'\xbc.\xc3@'
tRp480
ag7
(g9
S'D\xa7\xe7@'
tRp481
ag7
(g9
S'\x16<\x06A'
tRp482
ag7
(g9
S'f\x96\x18A'
tRp483
ag7
(g9
S'\xaeP*A'
tRp484
ag7
(g9
S'\x12~;A'
tRp485
ag7
(g9
S'V\x05MA'
tRp486
ag7
(g9
S'rTlA'
tRp487
ag7
(g9
S'\xb1\x80\x80A'
tRp488
ag7
(g9
S'\xfd\xde\x8aA'
tRp489
ag7
(g9
S'\xa7\xad\x9aA'
tRp490
ag7
(g9
S'\xe5\xf7\xa4A'
tRp491
ag7
(g9
S'w\xdf\xaaA'
tRp492
ag7
(g9
S'\xc7\xce\xb5A'
tRp493
ag7
(g9
S'\xe1\xe8\xc7A'
tRp494
ag7
(g9
S'\xd9R\xcdA'
tRp495
ag7
(g9
S'\x0b\xb4\xd8A'
tRp496
ag7
(g9
S']\xb7\xe6A'
tRp497
ag7
(g9
S'\tE\xebA'
tRp498
ag7
(g9
S'\x8f;\xf5A'
tRp499
ag7
(g9
S'\xb3\x9c\xfaA'
tRp500
ag7
(g9
S'\xdb\x95\xfeA'
tRp501
ag7
(g9
S'\xe8\x1b\x01B'
tRp502
ag7
(g9
S'\x8c\xea\x02B'
tRp503
ag7
(g9
S'\xac\xd8\x04B'
tRp504
ag7
(g9
S'\xcc\xb3\x06B'
tRp505
ag7
(g9
S'ro\x08B'
tRp506
ag7
(g9
S'\xbc\xcc\nB'
tRp507
ag7
(g9
S'\xa6e\x0cB'
tRp508
ag7
(g9
S'\xd4J\x12B'
tRp509
ag7
(g9
S'6\xc0\x15B'
tRp510
ag7
(g9
S'\xfc\x01\x1aB'
tRp511
ag7
(g9
S'N1\x1cB'
tRp512
ag7
(g9
S'\x8a=!B'
tRp513
ag7
(g9
S'j\xf4&B'
tRp514
ag7
(g9
S'\xc8\x8e,B'
tRp515
ag7
(g9
S'\xe2\xeb3B'
tRp516
ag7
(g9
S'"X9B'
tRp517
ag7
(g9
S'"X9B'
tRp518
ag7
(g9
S'\x90\xaf@B'
tRp519
ag7
(g9
S'\x96\x19FB'
tRp520
ag7
(g9
S'\x84$LB'
tRp521
ag7
(g9
S'\x9a\xacOB'
tRp522
ag7
(g9
S'\x9a\x06SB'
tRp523
ag7
(g9
S'\xc2\xfcUB'
tRp524
ag7
(g9
S'\xae$WB'
tRp525
ag7
(g9
S'\x12xYB'
tRp526
ag7
(g9
S'X\xac[B'
tRp527
ag7
(g9
S'\xea\x92^B'
tRp528
ag7
(g9
S'\x8c\x9c`B'
tRp529
ag7
(g9
S'\xf0\xfeaB'
tRp530
ag7
(g9
S'\xc6IcB'
tRp531
ag7
(g9
S'\n[cB'
tRp532
ag7
(g9
S'R\x90cB'
tRp533
ag7
(g9
S'b\x06dB'
tRp534
ag7
(g9
S'\xa0\xeddB'
tRp535
ag7
(g9
S'l\x1aeB'
tRp536
ag7
(g9
S'\xfa\xc8cB'
tRp537
ag7
(g9
S'r\xd0`B'
tRp538
ag7
(g9
S'J\xff^B'
tRp539
ag7
(g9
S'\xa2zYB'
tRp540
ag7
(g9
S'\xb6LMB'
tRp541
ag7
(g9
S'\xc4\x0cDB'
tRp542
ag7
(g9
S'\xc6\xfa9B'
tRp543
ag7
(g9
S'\x12\x1d.B'
tRp544
ag7
(g9
S"\xc6\xf6'B"
tRp545
ag7
(g9
S'\xa4Z\x1aB'
tRp546
ag7
(g9
S'\xbe\xa6\x0cB'
tRp547
ag7
(g9
S'\xfd\xac\xf1A'
tRp548
ag7
(g9
S'\x7f\x17\xe5A'
tRp549
ag7
(g9
S'A\xee\xcdA'
tRp550
ag7
(g9
S'\xdf\x88\xb8A'
tRp551
ag7
(g9
S'K>\x9cA'
tRp552
ag7
(g9
S'\xefa\x89A'
tRp553
ag7
(g9
S'\xf6#qA'
tRp554
ag7
(g9
S'\x86\xcdRA'
tRp555
ag7
(g9
S'\x92\xba,A'
tRp556
ag7
(g9
S'\x16\xba\x16A'
tRp557
ag7
(g9
S'\xaa\x9f\x03A'
tRp558
ag7
(g9
S'\xecV\xe6@'
tRp559
ag7
(g9
S'\x8c\xb8\xca@'
tRp560
ag7
(g9
S'\x14\xee\xb1@'
tRp561
ag7
(g9
S'tY\xa8@'
tRp562
ag7
(g9
S'\x14\xea\x8c@'
tRp563
ag7
(g9
S'\xf4s\x86@'
tRp564
ag7
(g9
S'(\xe6r@'
tRp565
ag7
(g9
S'\xb8bV@'
tRp566
ag7
(g9
S'\x98\tE@'
tRp567
ag7
(g9
S'\x98g4@'
tRp568
ag7
(g9
S'\xa8/(@'
tRp569
ag7
(g9
S'\xf8H\x1c@'
tRp570
ag7
(g9
S'\xc85\x0f@'
tRp571
ag7
(g9
S'\xd0\x87\xf8?'
tRp572
ag7
(g9
S'\x90\xcf\xe7?'
tRp573
ag7
(g9
S'\xf0\x9c\xdb?'
tRp574
ag7
(g9
S'\x10\x92\xc7?'
tRp575
ag7
(g9
S'\x103\xbf?'
tRp576
ag7
(g9
S'\xb0c\xbe?'
tRp577
ag7
(g9
S'0k\xb7?'
tRp578
ag7
(g9
S'0k\xb7?'
tRp579
ag7
(g9
S'\xd0\xac\xa7?'
tRp580
ag7
(g9
S'0\xff\xac?'
tRp581
ag7
(g9
S'\x90\xee\x9e?'
tRp582
ag7
(g9
S'\x10\xc1\x9f?'
tRp583
ag7
(g9
S'p\xbf\x99?'
tRp584
ag7
(g9
S'0\xf7\x90?'
tRp585
ag7
(g9
S'\xd0\xff\x8c?'
tRp586
ag7
(g9
S'\xf0W\x8f?'
tRp587
ag7
(g9
S'\x10\x88\x8c?'
tRp588
ag7
(g9
S'P\x81\x90?'
tRp589
ag7
(g9
S'p\xff\x89?'
tRp590
ag7
(g9
S'\x10\r\x88?'
tRp591
ag7
(g9
S'\xb0\x1e\x88?'
tRp592
ag7
(g9
S'\xb0\xe7\x89?'
tRp593
ag7
(g9
S'\xb0e\x8a?'
tRp594
ag7
(g9
S'\xf0Q\x85?'
tRp595
ag7
(g9
S'\xb0\x1e\x8c?'
tRp596
ag7
(g9
S'p\xd9\x8f?'
tRp597
ag7
(g9
S'0l\xa1?'
tRp598
ag7
(g9
S'p\x12\xc3?'
tRp599
ag7
(g9
S'\xa8V\x05@'
tRp600
ag7
(g9
S'\x182E@'
tRp601
ag7
(g9
S'\xd8\x18f@'
tRp602
ag7
(g9
S'\x0c\xb3\x9c@'
tRp603
ag7
(g9
S'd\x94\xef@'
tRp604
ag7
(g9
S'v\x0b\x17A'
tRp605
ag7
(g9
S'.\x7f7A'
tRp606
ag7
(g9
S'* YA'
tRp607
ag7
(g9
S'\xf27yA'
tRp608
ag7
(g9
S'\xb1|\x8dA'
tRp609
ag7
(g9
S'\xc7*\x9fA'
tRp610
ag7
(g9
S'\x05%\xb2A'
tRp611
ag7
(g9
S'\xabU\xc5A'
tRp612
ag7
(g9
S')\x7f\xd7A'
tRp613
ag7
(g9
S'}6\xe8A'
tRp614
ag7
(g9
S'S\xd1\xf7A'
tRp615
ag7
(g9
S'\xc6\xa2\x03B'
tRp616
ag7
(g9
S'8-\x0bB'
tRp617
ag7
(g9
S'0n\x12B'
tRp618
ag7
(g9
S':3\x19B'
tRp619
ag7
(g9
S'\xd2\xe7\x1fB'
tRp620
ag7
(g9
S'>\x98&B'
tRp621
ag7
(g9
S'\xb8\x0c-B'
tRp622
ag7
(g9
S'jy5B'
tRp623
ag7
(g9
S'\xfe(8B'
tRp624
ag7
(g9
S'\xcc\xbf<B'
tRp625
ag7
(g9
S'\xd4\xe2@B'
tRp626
ag7
(g9
S'\xc6\x12GB'
tRp627
ag7
(g9
S'8INB'
tRp628
ag7
(g9
S'\xee{RB'
tRp629
ag7
(g9
S'f\x8dUB'
tRp630
ag7
(g9
S'\xba:XB'
tRp631
ag7
(g9
S'\xb6(ZB'
tRp632
ag7
(g9
S'|\xbbZB'
tRp633
ag7
(g9
S'>JZB'
tRp634
ag7
(g9
S'\x8aSYB'
tRp635
ag7
(g9
S'\x84,WB'
tRp636
ag7
(g9
S',\xddSB'
tRp637
ag7
(g9
S'\xe2\x83OB'
tRp638
ag7
(g9
S'D\xcbJB'
tRp639
ag7
(g9
S'n\xd1EB'
tRp640
ag7
(g9
S'\xee\x07?B'
tRp641
ag7
(g9
S'\xa0W6B'
tRp642
ag7
(g9
S"f',B"
tRp643
ag7
(g9
S'\xc6a&B'
tRp644
ag7
(g9
S'\xbe6\x14B'
tRp645
ag7
(g9
S'\x98\xdb\rB'
tRp646
ag7
(g9
S'\xd7\t\xf2A'
tRp647
ag7
(g9
S'OA\xd7A'
tRp648
ag7
(g9
S'\x8d\xc1\xbdA'
tRp649
ag7
(g9
S'U\xd5\xa4A'
tRp650
ag7
(g9
S'\x83\x03\x85A'
tRp651
ag7
(g9
S'rYvA'
tRp652
ag7
(g9
S'n|CA'
tRp653
ag7
(g9
S'n\xa55A'
tRp654
ag7
(g9
S'\x9e\x8a\x0eA'
tRp655
ag7
(g9
S'<\x03\xf4@'
tRp656
ag7
(g9
S'\xdcP\xdf@'
tRp657
ag7
(g9
S'\xfc\xc3\xb1@'
tRp658
ag7
(g9
S'l/\x98@'
tRp659
ag7
(g9
S'\xa4\xff\x83@'
tRp660
ag7
(g9
S'\xa8\xa8h@'
tRp661
ag7
(g9
S'\xc8\x07M@'
tRp662
ag7
(g9
S'\xb8V4@'
tRp663
ag7
(g9
S'\xf8;#@'
tRp664
ag7
(g9
S'\xb83\x17@'
tRp665
ag7
(g9
S'H\xf1\x12@'
tRp666
ag7
(g9
S'x\xdc\n@'
tRp667
ag7
(g9
S'\x10g\xff?'
tRp668
ag7
(g9
S'0\xcf\xed?'
tRp669
ag7
(g9
S'\xb0~\xdc?'
tRp670
ag7
(g9
S'\x10\xd2\xce?'
tRp671
ag7
(g9
S'\x90\xdb\xc2?'
tRp672
ag7
(g9
S'\xb0L\xbf?'
tRp673
ag7
(g9
S'\x10h\xbd?'
tRp674
ag7
(g9
S'\xd0\xf6\xb4?'
tRp675
ag7
(g9
S'\x10P\xab?'
tRp676
ag7
(g9
S'\x10\xe7\xa4?'
tRp677
ag7
(g9
S'\xb0\x1d\xab?'
tRp678
ag7
(g9
S'\xb0\x01\xa7?'
tRp679
ag7
(g9
S'Pf\xa8?'
tRp680
ag7
(g9
S'\xf02\xa3?'
tRp681
ag7
(g9
S'P\xbb\xa5?'
tRp682
ag7
(g9
S'P\xe7\xad?'
tRp683
ag7
(g9
S'p,\xbd?'
tRp684
ag7
(g9
S'P\\\xd7?'
tRp685
ag7
(g9
S'0\xf0\xef?'
tRp686
ag7
(g9
S'\xb8\xbc\n@'
tRp687
ag7
(g9
S'\xe8\xa3&@'
tRp688
ag7
(g9
S'(,n@'
tRp689
ag7
(g9
S'\xd4]\x88@'
tRp690
ag7
(g9
S'\x1c\xc0\xbc@'
tRp691
ag7
(g9
S'T\t\xea@'
tRp692
ag7
(g9
S'F\xa7\rA'
tRp693
ag7
(g9
S'\x96\xc6&A'
tRp694
ag7
(g9
S'jDCA'
tRp695
ag7
(g9
S'\xea#eA'
tRp696
ag7
(g9
S'\x0f\xdf\x85A'
tRp697
ag7
(g9
S'G#\xa2A'
tRp698
ag7
(g9
S'qW\xabA'
tRp699
ag7
(g9
S'uu\xbcA'
tRp700
ag7
(g9
S'!\xfc\xd5A'
tRp701
ag7
(g9
S';^\xe5A'
tRp702
ag7
(g9
S'\xfb0\xf3A'
tRp703
ag7
(g9
S'fC\x00B'
tRp704
ag7
(g9
S'\x04\xef\x06B'
tRp705
ag7
(g9
S'\xf0\xdd\x0cB'
tRp706
ag7
(g9
S'(L\x12B'
tRp707
ag7
(g9
S'\xb2\xdb\x17B'
tRp708
ag7
(g9
S'\x12;\x1eB'
tRp709
ag7
(g9
S'\x82M%B'
tRp710
ag7
(g9
S'\x92\xcd+B'
tRp711
ag7
(g9
S'\x94\xe00B'
tRp712
ag7
(g9
S' \x0b5B'
tRp713
ag7
(g9
S'\xeay9B'
tRp714
ag7
(g9
S'\xe2\xe6=B'
tRp715
ag7
(g9
S'$\x9b?B'
tRp716
ag7
(g9
S'\x9aaCB'
tRp717
ag7
(g9
S'B\xa9JB'
tRp718
ag7
(g9
S'R\xc1KB'
tRp719
ag7
(g9
S'\xfe,NB'
tRp720
ag7
(g9
S'\x00\x0cQB'
tRp721
ag7
(g9
S'\xb4^RB'
tRp722
ag7
(g9
S'\xe0\x03SB'
tRp723
ag7
(g9
S'\xfe1RB'
tRp724
ag7
(g9
S'\xf0ePB'
tRp725
ag7
(g9
S'D\xa6OB'
tRp726
ag7
(g9
S'r\xb2LB'
tRp727
ag7
(g9
S'\xa8\xabEB'
tRp728
ag7
(g9
S'd\xedAB'
tRp729
ag7
(g9
S'\xc6\x8d<B'
tRp730
ag7
(g9
S'\xbc75B'
tRp731
ag7
(g9
S'\x1a\xd0,B'
tRp732
ag7
(g9
S'\xee\xe9#B'
tRp733
ag7
(g9
S'\xbe\xf6\x19B'
tRp734
ag7
(g9
S'H\xd5\x0eB'
tRp735
ag7
(g9
S'\xde`\x03B'
tRp736
ag7
(g9
S'\xbd\xdd\xe5A'
tRp737
ag7
(g9
S'\xa9t\xcfA'
tRp738
ag7
(g9
S'Y\xe0\xc4A'
tRp739
ag7
(g9
S'\xff^\xa4A'
tRp740
ag7
(g9
S'\xd37\x9aA'
tRp741
ag7
(g9
S"'\x00\x91A"
tRp742
ag7
(g9
S'n\xablA'
tRp743
ag7
(g9
S'\xce\x89\\A'
tRp744
ag7
(g9
S'\xbai0A'
tRp745
ag7
(g9
S'\xceP\x15A'
tRp746
ag7
(g9
S't\x8c\xec@'
tRp747
ag7
(g9
S'\xec\x8d\xd7@'
tRp748
ag7
(g9
S'\x8c\x06\xab@'
tRp749
ag7
(g9
S'|\xd2\xa0@'
tRp750
ag7
(g9
S'tb\x8a@'
tRp751
ag7
(g9
S'\x88\xa8n@'
tRp752
ag7
(g9
S'HC_@'
tRp753
ag7
(g9
S'8MR@'
tRp754
ag7
(g9
S'xLM@'
tRp755
ag7
(g9
S'\x08_K@'
tRp756
ag7
(g9
S'(`B@'
tRp757
ag7
(g9
S'\xe8:<@'
tRp758
ag7
(g9
S'x\xae6@'
tRp759
ag7
(g9
S'\x08)0@'
tRp760
ag7
(g9
S'x\xf5#@'
tRp761
ag7
(g9
S'\xd8\x10\x19@'
tRp762
ag7
(g9
S'8B\x0f@'
tRp763
ag7
(g9
S'8\xcb\x08@'
tRp764
ag7
(g9
S'h;\x03@'
tRp765
ag7
(g9
S'0\xd8\xf4?'
tRp766
ag7
(g9
S'\xd0-\xe6?'
tRp767
ag7
(g9
S'\xf0}\xda?'
tRp768
ag7
(g9
S'\xb0$\xd7?'
tRp769
ag7
(g9
S'0\xe6\xd2?'
tRp770
ag7
(g9
S'\x90\xf5\xd6?'
tRp771
ag7
(g9
S'\xb0~\xcf?'
tRp772
ag7
(g9
S'0\x10\xd4?'
tRp773
ag7
(g9
S'\x90\xca\xd3?'
tRp774
ag7
(g9
S'p\xe4\xda?'
tRp775
ag7
(g9
S'\x90\\\xe0?'
tRp776
ag7
(g9
S'\x90\xda\xe1?'
tRp777
ag7
(g9
S'0\x17\xe7?'
tRp778
ag7
(g9
S'\xd0\x95\xec?'
tRp779
ag7
(g9
S'\x107\xfa?'
tRp780
ag7
(g9
S'\x08\xf3\x04@'
tRp781
ag7
(g9
S'\xd8\xcd\x0c@'
tRp782
ag7
(g9
S'\xc8\x89\x1b@'
tRp783
ag7
(g9
S'\xf8\xa7L@'
tRp784
ag7
(g9
S'H%`@'
tRp785
ag7
(g9
S'\xdc\xe4\x9d@'
tRp786
ag7
(g9
S'T\x16\xc9@'
tRp787
ag7
(g9
S'\xdc\x82\xfb@'
tRp788
ag7
(g9
S'\xc6\xdf\x19A'
tRp789
ag7
(g9
S'\xde;6A'
tRp790
ag7
(g9
S':\xbcSA'
tRp791
ag7
(g9
S'\xa2\xdeqA'
tRp792
ag7
(g9
S'-\x13\x8fA'
tRp793
ag7
(g9
S'\xf5\t\x9dA'
tRp794
ag7
(g9
S'\xbb\xb8\xabA'
tRp795
ag7
(g9
S'\xbb`\xbbA'
tRp796
ag7
(g9
S'_\xf8\xcbA'
tRp797
ag7
(g9
S'a\xb6\xddA'
tRp798
ag7
(g9
S'\x1b\xa4\xf0A'
tRp799
ag7
(g9
S'\xd8\xe5\x01B'
tRp800
ag7
(g9
S'&\x07\nB'
tRp801
ag7
(g9
S'\xdc"\x10B'
tRp802
ag7
(g9
S'\xb4\x84\x12B'
tRp803
ag7
(g9
S'\x0e\xf9\x18B'
tRp804
ag7
(g9
S'\xf0\x01\x1bB'
tRp805
ag7
(g9
S':\x15 B'
tRp806
ag7
(g9
S'\x84\x9f#B'
tRp807
ag7
(g9
S"b\x17'B"
tRp808
ag7
(g9
S'\x80\x13+B'
tRp809
ag7
(g9
S'\xa6\x88/B'
tRp810
ag7
(g9
S'\x86m4B'
tRp811
ag7
(g9
S'\x14\xd28B'
tRp812
ag7
(g9
S'\x00Y<B'
tRp813
ag7
(g9
S'0\x82?B'
tRp814
ag7
(g9
S'\x8e|BB'
tRp815
ag7
(g9
S'BTEB'
tRp816
ag7
(g9
S'|\x07HB'
tRp817
ag7
(g9
S'80KB'
tRp818
ag7
(g9
S'p\x8eMB'
tRp819
ag7
(g9
S'\xca\\OB'
tRp820
ag7
(g9
S'\xee{PB'
tRp821
ag7
(g9
S'8jQB'
tRp822
ag7
(g9
S'\x08nRB'
tRp823
ag7
(g9
S'\xfa\x83SB'
tRp824
ag7
(g9
S'r\x0eTB'
tRp825
ag7
(g9
S'\xfe\x81SB'
tRp826
ag7
(g9
S'fmQB'
tRp827
ag7
(g9
S'\xe2\x03MB'
tRp828
ag7
(g9
S'\xa8\xf3EB'
tRp829
ag7
(g9
S'\xa6\x85;B'
tRp830
ag7
(g9
S'~\x9b.B'
tRp831
ag7
(g9
S'\x1c[\x1fB'
tRp832
ag7
(g9
S'\x80\xa0\x0eB'
tRp833
ag7
(g9
S'%\x0f\xeaA'
tRp834
ag7
(g9
S'9\xbf\xc9A'
tRp835
ag7
(g9
S'g\x85\xbbA'
tRp836
ag7
(g9
S'\xdb\xec\x9fA'
tRp837
ag7
(g9
S'\xbd\xcf\x88A'
tRp838
ag7
(g9
S'\xeeyhA'
tRp839
ag7
(g9
S'n\xdaDA'
tRp840
ag7
(g9
S'\x82\xe4%A'
tRp841
ag7
(g9
S'\x96Q\nA'
tRp842
ag7
(g9
S'\x1c\x81\xe6@'
tRp843
ag7
(g9
S'\xc4\x18\xc1@'
tRp844
ag7
(g9
S'\x1c\xc3\xa3@'
tRp845
ag7
(g9
S'L[\x8c@'
tRp846
ag7
(g9
S'hjq@'
tRp847
ag7
(g9
S'hgC@'
tRp848
ag7
(g9
S'h\xd8-@'
tRp849
ag7
(g9
S'\xb8\xc1\x18@'
tRp850
ag7
(g9
S'\x98&\x08@'
tRp851
ag7
(g9
S'\x18U\x00@'
tRp852
ag7
(g9
S'PY\xdb?'
tRp853
ag7
(g9
S'0\x0f\xcc?'
tRp854
ag7
(g9
S'\xd0\x82\xc9?'
tRp855
ag7
(g9
S'\xd0\xac\xc8?'
tRp856
ag7
(g9
S'\xf0P\xbe?'
tRp857
ag7
(g9
S'\xd0\xb2\xb6?'
tRp858
ag7
(g9
S'\xb0\xbe\xb1?'
tRp859
ag7
(g9
S'p\x99\xb2?'
tRp860
ag7
(g9
S'0I\xb0?'
tRp861
ag7
(g9
S'\xb0\xf7\xac?'
tRp862
ag7
(g9
S'P\x98\xa1?'
tRp863
ag7
(g9
S'\x90R\x9e?'
tRp864
ag7
(g9
S"\x90'\xa0?"
tRp865
ag7
(g9
S'0\x0f\xa6?'
tRp866
ag7
(g9
S'\xf0w\xab?'
tRp867
ag7
(g9
S'\x10)\xa7?'
tRp868
ag7
(g9
S'pJ\xab?'
tRp869
ag7
(g9
S'\x10\x10\xac?'
tRp870
ag7
(g9
S'\xb0-\xb3?'
tRp871
ag7
(g9
S'\xf0E\xc3?'
tRp872
ag7
(g9
S'\xd0@\xd5?'
tRp873
ag7
(g9
S'\x10]\xdd?'
tRp874
ag7
(g9
S'\xd0\xc9\xfb?'
tRp875
ag7
(g9
S'\xd8\x1c\x1c@'
tRp876
ag7
(g9
S'H>/@'
tRp877
ag7
(g9
S'\x88\x84|@'
tRp878
ag7
(g9
S'\\\x1e\x9d@'
tRp879
ag7
(g9
S'4\xb3\xe0@'
tRp880
ag7
(g9
S'\x16\xf7\x08A'
tRp881
ag7
(g9
S'\xc6\xc3#A'
tRp882
ag7
(g9
S'~\xf9?A'
tRp883
ag7
(g9
S'"OOA'
tRp884
ag7
(g9
S'n\xa2\x7fA'
tRp885
ag7
(g9
S'\x85\x85\x87A'
tRp886
ag7
(g9
S'\xf9\x9b\x99A'
tRp887
ag7
(g9
S'\xd1^\xbaA'
tRp888
ag7
(g9
S'Q\x14\xd1A'
tRp889
ag7
(g9
S'\x1f\xeb\xe6A'
tRp890
ag7
(g9
S'E\xdc\xf0A'
tRp891
ag7
(g9
S'\xd6\xcb\rB'
tRp892
ag7
(g9
S'\xd6\xcb\rB'
tRp893
ag7
(g9
S'X\xcc\x1cB'
tRp894
ag7
(g9
S'^J!B'
tRp895
ag7
(g9
S'\x88}-B'
tRp896
ag7
(g9
S'x\x174B'
tRp897
ag7
(g9
S'>\xb59B'
tRp898
ag7
(g9
S'\xe0\xb5@B'
tRp899
ag7
(g9
S'\xb0\x8fDB'
tRp900
ag7
(g9
S'\x98\x97FB'
tRp901
ag7
(g9
S'\x0c5JB'
tRp902
ag7
(g9
S'\x10\x98MB'
tRp903
ag7
(g9
S'p\rQB'
tRp904
ag7
(g9
S':5TB'
tRp905
ag7
(g9
S'n,XB'
tRp906
ag7
(g9
S'f\x84ZB'
tRp907
ag7
(g9
S' \xda\\B'
tRp908
ag7
(g9
S'\xfcq^B'
tRp909
ag7
(g9
S'n\xa6^B'
tRp910
ag7
(g9
S'\x98\x1f^B'
tRp911
ag7
(g9
S'\xa60\\B'
tRp912
ag7
(g9
S'\xa0\xd3XB'
tRp913
ag7
(g9
S'\xac0TB'
tRp914
ag7
(g9
S'&\x02OB'
tRp915
ag7
(g9
S'X"JB'
tRp916
ag7
(g9
S':\xf1CB'
tRp917
ag7
(g9
S'\xb01<B'
tRp918
ag7
(g9
S'^\xf42B'
tRp919
ag7
(g9
S'\xce\xcd!B'
tRp920
ag7
(g9
S'h]\x15B'
tRp921
ag7
(g9
S'\xa4\xa1\x08B'
tRp922
ag7
(g9
S'\xd5B\xf8A'
tRp923
ag7
(g9
S'\xb5\x1f\xe1A'
tRp924
ag7
(g9
S'E\xf1\xcaA'
tRp925
ag7
(g9
S'}\xf7\xb4A'
tRp926
ag7
(g9
S'\x19i\x9fA'
tRp927
ag7
(g9
S'q5\x8aA'
tRp928
ag7
(g9
S'\x0e\xe6mA'
tRp929
ag7
(g9
S'Fh<A'
tRp930
ag7
(g9
S'\x8e\xe2-A'
tRp931
ag7
(g9
S'\xa2\x1f\x06A'
tRp932
ag7
(g9
S'\x8c\x14\xe2@'
tRp933
ag7
(g9
S'|?\xc0@'
tRp934
ag7
(g9
S't_\xa3@'
tRp935
ag7
(g9
S'\xfc\x00\x8b@'
tRp936
ag7
(g9
S'\x08\x05o@'
tRp937
ag7
(g9
S'\xf8+U@'
tRp938
ag7
(g9
S'\x08\xb2;@'
tRp939
ag7
(g9
S'hb&@'
tRp940
ag7
(g9
S'\xa82\x12@'
tRp941
ag7
(g9
S'8\x17\x04@'
tRp942
ag7
(g9
S'\x90\xc0\xf1?'
tRp943
ag7
(g9
S'\xb0\xac\xe1?'
tRp944
ag7
(g9
S'p\xf2\xd4?'
tRp945
ag7
(g9
S'P\x8a\xc0?'
tRp946
ag7
(g9
S'\xb0\xef\xb1?'
tRp947
ag7
(g9
S'\x90\xbd\xa4?'
tRp948
ag7
(g9
S'\xf0\xe4\x9d?'
tRp949
ag7
(g9
S'0\xd7\x9c?'
tRp950
ag7
(g9
S'P\x98\x96?'
tRp951
ag7
(g9
S'0\x9a\x8e?'
tRp952
ag7
(g9
S'P\xaa\x8b?'
tRp953
ag7
(g9
S'p\xab\x8e?'
tRp954
ag7
(g9
S'0\t\x8e?'
tRp955
ag7
(g9
S'\xf0\x83\x90?'
tRp956
ag7
(g9
S'\xf0\x8e\x97?'
tRp957
ag7
(g9
S'00\x9c?'
tRp958
ag7
(g9
S'\xf0\x0b\x98?'
tRp959
ag7
(g9
S'\x90\xb7\x9a?'
tRp960
ag7
(g9
S'\xb0a\x9f?'
tRp961
ag7
(g9
S'\x10\x13\xb0?'
tRp962
ag7
(g9
S'\xf0v\xc2?'
tRp963
ag7
(g9
S'\xb0\x03\xd7?'
tRp964
ag7
(g9
S'\xd0o\xe3?'
tRp965
ag7
(g9
S'\xb0\x11\xf5?'
tRp966
ag7
(g9
S'\x18"\x08@'
tRp967
ag7
(g9
S'\x084\x1d@'
tRp968
ag7
(g9
S'\x18\x03+@'
tRp969
ag7
(g9
S'\xc8\xe0K@'
tRp970
ag7
(g9
S'\x08\xe3U@'
tRp971
ag7
(g9
S'\xc8\xd7s@'
tRp972
ag7
(g9
S'<.\x8b@'
tRp973
ag7
(g9
S'\xec \x9e@'
tRp974
ag7
(g9
S',\xc2\xb2@'
tRp975
ag7
(g9
S'4-\xce@'
tRp976
ag7
(g9
S'<\xb8\xec@'
tRp977
ag7
(g9
S'\n:\x07A'
tRp978
ag7
(g9
S'\xcex\x1aA'
tRp979
ag7
(g9
S'\x82U/A'
tRp980
ag7
(g9
S'\xba\x87EA'
tRp981
ag7
(g9
S'\xf6\xd7[A'
tRp982
ag7
(g9
S'\xbaCsA'
tRp983
ag7
(g9
S'A\xad\x8bA'
tRp984
ag7
(g9
S'\x91\xc0\x99A'
tRp985
ag7
(g9
S'\xdb=\xa9A'
tRp986
ag7
(g9
S'yI\xb9A'
tRp987
ag7
(g9
S'\xf5a\xc9A'
tRp988
ag7
(g9
S'k \xe2A'
tRp989
ag7
(g9
S'?8\xf0A'
tRp990
ag7
(g9
S'\xb1\xe5\xf6A'
tRp991
ag7
(g9
S'\xa8\x9f\x03B'
tRp992
ag7
(g9
S'\x12\xed\x07B'
tRp993
ag7
(g9
S'$:\x0bB'
tRp994
asS'adc'
p995
(lp996
F1023
aF1023
aF1023
aF1023
aF1023
aF1023
aF1023
aF1023
aF1023
aF1023
aF1023
aF1023
aF1023
aF1023
aF1023
aF1023
aF1023
aF1023
aF1023
aF1023
aF1023
aF1023
aF1023
aF1023
aF1023
aF1023
aF1023
aF1023
aF1023
aF1023
aF1023
aF1023
aF1023
aF1023
aF1023
aF1023
aF1023
aF1023
aF1023
aF1023
aF1023
aF1023
aF1023
aF1023
aF1023
aF1023
aF1023
aF1023
aF991
aF960
aF903
aF858
aF834
aF817
aF777
aF761
aF745
aF735
aF727
aF690
aF645
aF623
aF597
aF572
aF548
aF531
aF516
aF488
aF480
aF504
aF475
aF468
aF452
aF468
aF472
aF491
aF491
aF490
aF504
aF512
aF542
aF568
aF626
aF676
aF720
aF808
aF868
aF927
aF963
aF993
aF1022
aF1023
aF1023
aF1023
aF1023
aF1023
aF1023
aF1023
aF1023
aF1023
aF1023
aF1023
aF1023
aF1023
aF1023
aF1023
aF1023
aF1023
aF1023
aF1023
aF1023
aF1023
aF1023
aF1020
aF991
aF962
aF944
aF914
aF883
aF831
aF783
aF744
aF703
aF643
aF606
aF575
aF554
aF530
aF506
aF486
aF480
aF458
aF443
aF442
aF460
aF433
aF443
aF388
aF446
aF455
aF372
aF374
aF357
aF340
aF342
aF338
aF347
aF325
aF334
aF329
aF321
aF301
aF359
aF302
aF312
aF317
aF336
aF321
aF356
aF375
aF411
aF486
aF550
aF610
aF685
aF755
aF823
aF872
aF914
aF956
aF994
aF1023
aF1023
aF1023
aF1023
aF1023
aF1023
aF1023
aF1023
aF1023
aF1023
aF1023
aF1023
aF1023
aF1023
aF1023
aF1023
aF1023
aF1023
aF1023
aF1023
aF1023
aF1023
aF1023
aF1023
aF1023
aF1023
aF1008
aF987
aF966
aF947
aF926
aF901
aF875
aF847
aF816
aF786
aF744
aF707
aF670
aF638
aF606
aF578
aF547
aF505
aF476
aF450
aF426
aF414
aF397
aF387
aF388
aF390
aF381
aF386
aF403
aF379
aF372
aF371
aF367
aF366
aF364
aF355
aF353
aF343
aF337
aF336
aF337
aF337
aF337
aF339
aF342
aF346
aF356
aF370
aF392
aF426
aF450
aF508
aF556
aF628
aF690
aF756
aF844
aF901
aF939
aF975
aF1010
aF1023
aF1023
aF1023
aF1023
aF1023
aF1023
aF1023
aF1023
aF1023
aF1023
aF1023
aF1023
aF1023
aF1023
aF1023
aF1023
aF1023
aF1023
aF1023
aF1023
aF1023
aF1023
aF1023
aF1023
aF1023
aF1023
aF1023
aF1023
aF1021
aF1005
aF948
aF900
aF851
aF818
aF780
aF753
aF684
aF642
aF592
aF541
aF518
aF496
aF462
aF457
aF421
aF399
aF390
aF394
aF387
aF367
aF350
aF360
aF351
aF347
aF354
aF366
aF338
aF326
aF322
aF312
aF309
aF309
aF308
aF311
aF317
aF309
aF323
aF314
aF322
aF329
aF333
aF344
aF356
aF373
aF392
aF417
aF454
aF501
aF556
aF614
aF697
aF726
aF839
aF897
aF941
aF972
aF1004
aF1023
aF1023
aF1023
aF1023
aF1023
aF1023
aF1023
aF1023
aF1023
aF1023
aF1023
aF1023
aF1023
aF1023
aF1023
aF1023
aF1023
aF1023
aF1023
aF1023
aF1023
aF1023
aF1023
aF1023
aF1023
aF1023
aF1023
aF1023
aF1023
aF1023
aF1015
aF987
aF963
aF942
aF908
aF884
aF838
aF797
aF755
aF684
aF625
aF588
aF553
aF519
aF473
aF449
aF429
aF409
aF392
aF379
aF364
aF350
aF339
aF328
aF327
aF329
aF372
aF314
aF310
aF306
aF302
aF295
aF292
aF289
aF287
aF285
aF283
aF280
aF278
aF276
aF288
aF366
aF304
aF368
aF385
aF417
aF394
aF456
aF460
aF486
aF504
aF539
aF548
aF610
aF679
aF775
aF838
aF900
aF938
aF976
aF1009
aF1023
aF1023
aF1023
aF1023
aF1023
aF1023
aF1023
aF1023
aF1023
aF1023
aF1023
aF1023
aF1023
aF1023
aF1023
aF1023
aF1023
aF1023
aF1023
aF1023
aF1023
aF1023
aF1023
aF1023
aF1023
aF1023
aF1023
aF1023
aF1023
aF1023
aF1023
aF1019
aF985
aF949
aF915
aF888
aF872
aF849
aF826
aF784
aF738
aF717
aF687
aF660
aF633
aF608
aF596
aF567
aF543
aF541
aF550
aF516
aF541
aF545
aF510
aF521
aF525
aF525
aF520
aF516
aF504
aF500
aF472
aF459
aF454
aF451
aF463
aF442
aF426
aF421
aF409
aF392
aF386
aF361
aF360
aF358
aF354
aF361
aF385
aF464
aF496
aF494
aF416
aF405
aF370
aF366
aF363
aF358
aF344
aF342
aF348
aF351
aF354
aF453
aF448
aF310
aF319
aF334
aF356
aF376
aF395
aF448
aF480
aF518
aF563
aF646
aF688
aF748
aF803
aF849
aF915
aF963
aF985
aF991
aF1008
aF1017
aF1023
aF1023
aF1023
aF1023
aF1023
aF1023
aF1023
aF1023
aF1023
aF1023
aF1023
aF1023
aF1023
aF1023
aF1023
aF1023
aF1023
aF1023
aF1023
aF1023
aF1023
aF1023
aF1023
aF1023
aF1023
aF1023
aF1023
aF1023
aF1023
aF1023
aF1023
aF1023
aF1023
aF1023
aF1023
aF1023
aF1023
aF1023
aF1023
aF989
aF968
aF856
aF801
aF731
aF688
aF640
aF590
aF531
aF494
aF462
aF447
aF432
aF397
aF387
aF399
aF367
aF362
aF348
aF345
aF327
aF324
aF317
aF307
aF295
aF291
aF288
aF288
aF343
aF306
aF278
aF290
aF295
aF288
aF301
aF298
aF297
aF294
aF297
aF304
aF317
aF332
aF353
aF380
aF413
aF486
aF521
aF605
aF645
aF740
aF809
aF861
aF912
aF964
aF969
aF1013
aF1023
aF1023
aF1023
aF1023
aF1023
aF1023
aF1023
aF1023
aF1023
aF1023
aF1023
aF1023
aF1023
aF1023
aF1023
aF1023
aF1023
aF1023
aF1023
aF1023
aF1023
aF1023
aF1023
aF1023
aF1023
aF1023
aF1023
aF1023
aF1023
aF1023
aF1023
aF1023
aF976
aF930
aF881
aF830
aF772
aF717
aF637
aF589
aF550
aF512
aF484
aF462
aF478
aF420
aF433
aF401
aF392
aF393
aF371
aF338
aF327
aF337
aF311
aF313
aF309
aF299
aF307
aF308
aF296
aF289
aF298
aF301
aF312
aF287
aF308
aF305
aF300
aF325
aF329
aF337
aF342
aF356
aF347
aF354
aF372
aF395
aF418
aF448
aF497
aF549
aF607
aF647
aF712
aF788
aF847
aF913
aF951
aF994
aF1004
aF1022
aF1023
aF1023
aF1023
aF1023
aF1023
aF1023
aF1023
aF1023
aF1023
aF1023
aF1023
aF1023
aF1023
aF1023
aF1023
aF1023
aF1023
aF1023
aF1023
aF1023
aF1023
aF1023
aF1023
aF1023
aF1023
aF1023
aF1023
aF1023
aF1023
aF1023
aF1023
aF1023
aF1023
aF1023
aF1023
aF1002
aF958
aF908
aF835
aF793
aF737
aF688
aF654
aF622
aF584
aF554
aF518
aF476
aF484
aF411
aF388
aF377
aF367
aF356
aF352
aF359
aF376
aF370
aF350
aF346
aF343
aF326
aF308
aF309
aF326
aF311
aF301
aF299
aF296
aF307
aF331
aF286
aF285
aF297
aF314
aF307
aF285
aF286
aF289
aF298
aF314
aF339
aF372
aF425
aF499
aF557
aF626
aF691
aF762
aF825
aF887
aF946
aF973
aF1011
aF1023
aF1023
aF1023
aF1023
aF1023
aF1023
aF1023
aF1023
aF1023
aF1023
aF1023
aF1023
aF1023
aF1023
aF1023
aF1023
aF1023
aF1023
aF1023
aF1023
aF1023
aF1023
aF1023
aF1023
aF1023
aF1023
aF1023
aF1023
aF1023
aF1023
aF1023
aF1023
aF1023
aF1023
aF1005
aF956
aF908
aF836
aF791
aF739
aF693
aF628
aF588
aF528
aF479
aF440
aF429
aF383
aF341
aF337
aF336
aF306
aF300
aF298
aF300
aF299
aF290
aF287
aF284
aF291
aF345
aF303
aF292
aF274
aF271
aF270
aF270
aF271
aF270
aF268
aF269
aF269
aF274
aF282
aF291
aF306
aF326
aF352
aF376
aF408
aF439
aF490
aF546
aF635
aF714
aF784
aF841
aF907
aF959
aF997
aF1017
aF1023
aF1023
aF1023
aF1023
aF1023
aF1023
aF1023
aF1023
aF1023
aF1023
aF1023
aF1023
aF1023
aF1023
aF1023
aF1023
aF1023
aF1023
aF1023
aF1023
aF1023
aF1023
aF1023
aF1023
aF1023
aF1023
aF1023
aF1023
aF1023
aF1023
aF1023
aF1023
aF1023
aF1023
aF1023
aF1023
aF1023
aF1023
aF1023
aF1009
aF981
aF947
aF921
aF866
aF813
aF767
aF743
aF688
aF657
aF621
aF576
aF532
aF515
aF444
aF421
aF401
aF389
aF382
aF377
aF373
aF369
as.