(dp1
S'final_state'
p2
S'end-effector not moving'
p3
sS'reached_goal'
p4
I00
sS'goal'
p5
cnumpy.core.multiarray
_reconstruct
p6
(cnumpy.matrixlib.defmatrix
matrix
p7
(I0
tS'b'
tRp8
(I1
(I3
I1
tcnumpy
dtype
p9
(S'f8'
I0
I1
tRp10
(I3
S'<'
NNNI-1
I-1
I0
tbI00
S'\xdeh\xd7\xd5"f\xe3?efffff\xd6\xbf\x00\x00\x00\x00\x00\x00\x00\x00'
tbs.