(dp1
S'pull_up'
p2
F47
sS'contact_area'
p3
F0.00040000000000000002
sS'adc_bias'
p4
F1023
sS'ft'
p5
(lp6
cnumpy.core.multiarray
scalar
p7
(cnumpy
dtype
p8
(S'f4'
I0
I1
tRp9
(I3
S'<'
NNNI-1
I-1
I0
tbS'@\x9d\xf6>'
tRp10
ag7
(g9
S'@\x83\xf7>'
tRp11
ag7
(g9
S'`K\x02?'
tRp12
ag7
(g9
S'\xa0|\n?'
tRp13
ag7
(g9
S'\xe0\x91\r?'
tRp14
ag7
(g9
S'`}\x05?'
tRp15
ag7
(g9
S'\xe0r\x0b?'
tRp16
ag7
(g9
S' \xed,?'
tRp17
ag7
(g9
S'`\x9d0?'
tRp18
ag7
(g9
S'\xa0\xf66?'
tRp19
ag7
(g9
S'\xe0\x04<?'
tRp20
ag7
(g9
S'`E9?'
tRp21
ag7
(g9
S'\xe0\xc28?'
tRp22
ag7
(g9
S'\xa0kE?'
tRp23
ag7
(g9
S'\xe0\xb1N?'
tRp24
ag7
(g9
S' LB?'
tRp25
ag7
(g9
S'`\xcfJ?'
tRp26
ag7
(g9
S'\xe0\x0bA?'
tRp27
ag7
(g9
S'\xe0\xecF?'
tRp28
ag7
(g9
S' \xf95?'
tRp29
ag7
(g9
S'\xe0\xef<?'
tRp30
ag7
(g9
S'\xe0\x0cC?'
tRp31
ag7
(g9
S'`\xa63?'
tRp32
ag7
(g9
S' \xd3/?'
tRp33
ag7
(g9
S'\xa0A&?'
tRp34
ag7
(g9
S'\xe0$\x0f?'
tRp35
ag7
(g9
S'`b\x01?'
tRp36
ag7
(g9
S'\xc0[\xfb>'
tRp37
ag7
(g9
S' \x95\x04?'
tRp38
ag7
(g9
S'`\\\t?'
tRp39
ag7
(g9
S'@\xbe\xf6>'
tRp40
ag7
(g9
S'\xc0\x0f\xe9>'
tRp41
ag7
(g9
S'\xc0\xb4\xed>'
tRp42
ag7
(g9
S'\xc0\xf5\xee>'
tRp43
ag7
(g9
S'@}\xfc>'
tRp44
ag7
(g9
S' L\x03?'
tRp45
ag7
(g9
S'\xa0\xe3G?'
tRp46
ag7
(g9
S'0\x81\xca?'
tRp47
ag7
(g9
S'8\x05\x14@'
tRp48
ag7
(g9
S'h\x16B@'
tRp49
ag7
(g9
S'<^\x83@'
tRp50
ag7
(g9
S'\x84\x93\xc0@'
tRp51
ag7
(g9
S'\xe4)\xeb@'
tRp52
ag7
(g9
S'\xac\xb2\xfe@'
tRp53
ag7
(g9
S'\xfa~\x17A'
tRp54
ag7
(g9
S'\x1a\x150A'
tRp55
ag7
(g9
S'\xae\x1cFA'
tRp56
ag7
(g9
S'\xea+[A'
tRp57
ag7
(g9
S'\x9e0pA'
tRp58
ag7
(g9
S'K\x91\x83A'
tRp59
ag7
(g9
S'\x1f\x01\x90A'
tRp60
ag7
(g9
S'\x89\xfd\xa2A'
tRp61
ag7
(g9
S'\x19\x94\xb0A'
tRp62
ag7
(g9
S'\xe1\xad\xbeA'
tRp63
ag7
(g9
S'\xa7<\xccA'
tRp64
ag7
(g9
S'\x97\xd5\xd8A'
tRp65
ag7
(g9
S'\xa1<\xe5A'
tRp66
ag7
(g9
S'\xf7\x89\xf1A'
tRp67
ag7
(g9
S'\x83\xea\xfdA'
tRp68
ag7
(g9
S'\xba\xc9\x04B'
tRp69
ag7
(g9
S'\x9c\x85\nB'
tRp70
ag7
(g9
S'6#\x10B'
tRp71
ag7
(g9
S'\x00\xb5\x15B'
tRp72
ag7
(g9
S'\xe2\xcb\x1aB'
tRp73
ag7
(g9
S'<S\x1fB'
tRp74
ag7
(g9
S'\xb8M%B'
tRp75
ag7
(g9
S'\x1a\r(B'
tRp76
ag7
(g9
S'\xf4\xb6)B'
tRp77
ag7
(g9
S'\xd0\xd6*B'
tRp78
ag7
(g9
S'\xa6L+B'
tRp79
ag7
(g9
S'j\xd0*B'
tRp80
ag7
(g9
S'\x88>)B'
tRp81
ag7
(g9
S'\xa6d&B'
tRp82
ag7
(g9
S'@o"B'
tRp83
ag7
(g9
S'p\x17\x1dB'
tRp84
ag7
(g9
S'H(\x16B'
tRp85
ag7
(g9
S'j\x8e\rB'
tRp86
ag7
(g9
S'`$\x03B'
tRp87
ag7
(g9
S'=\xfb\xefA'
tRp88
ag7
(g9
S'=\xd7\xd8A'
tRp89
ag7
(g9
S'\x99\x80\xc1A'
tRp90
ag7
(g9
S'W}\xaaA'
tRp91
ag7
(g9
S'W \x95A'
tRp92
ag7
(g9
S'\xa3\xf1\x81A'
tRp93
ag7
(g9
S'\xc6\xdfcA'
tRp94
ag7
(g9
S'\x0e\xd1GA'
tRp95
ag7
(g9
S'N\x99.A'
tRp96
ag7
(g9
S'\xba\xd7\x18A'
tRp97
ag7
(g9
S'\xba\x81\x05A'
tRp98
ag7
(g9
S'Dl\xde@'
tRp99
ag7
(g9
S'\xec\x9f\xc2@'
tRp100
ag7
(g9
S't\xb9\xab@'
tRp101
ag7
(g9
S'\xa4\x83\x98@'
tRp102
ag7
(g9
S'|\x01\x8b@'
tRp103
ag7
(g9
S'h\xa0}@'
tRp104
ag7
(g9
S'\x98le@'
tRp105
ag7
(g9
S'H\xf5P@'
tRp106
ag7
(g9
S'\xf8\xc2K@'
tRp107
ag7
(g9
S'\xc8\x87*@'
tRp108
ag7
(g9
S'\xc8\x87*@'
tRp109
ag7
(g9
S'\xc8\x08\x1e@'
tRp110
ag7
(g9
S'\xe8\x93\x12@'
tRp111
ag7
(g9
S'\x18:\x0e@'
tRp112
ag7
(g9
S'\xe8\t\x07@'
tRp113
ag7
(g9
S'\xe8\t\x07@'
tRp114
ag7
(g9
S'\xa8\xed\x06@'
tRp115
ag7
(g9
S'(t\x03@'
tRp116
ag7
(g9
S'\xa8\xe7\x01@'
tRp117
ag7
(g9
S'\x10\x8d\xef?'
tRp118
ag7
(g9
S'\xb0\x1c\xeb?'
tRp119
ag7
(g9
S'\x90\xe8\xf0?'
tRp120
ag7
(g9
S'\x10q\xe7?'
tRp121
ag7
(g9
S'\xd0&\xeb?'
tRp122
ag7
(g9
S'0\xf0\xea?'
tRp123
ag7
(g9
S'\xf0\x17\xe4?'
tRp124
ag7
(g9
S'\xf0f\xeb?'
tRp125
ag7
(g9
S'\xf0\xff\xeb?'
tRp126
ag7
(g9
S'\xf0\xa1\xe5?'
tRp127
ag7
(g9
S'\xb0C\xee?'
tRp128
ag7
(g9
S'p\xe1\xf1?'
tRp129
ag7
(g9
S'p\xf6\xf3?'
tRp130
ag7
(g9
S'\x98\x08\x01@'
tRp131
ag7
(g9
S'H\xa4\x0e@'
tRp132
ag7
(g9
S'8n\x1e@'
tRp133
ag7
(g9
S'\xa8\xce1@'
tRp134
ag7
(g9
S'x\xbbP@'
tRp135
ag7
(g9
S'\x98I{@'
tRp136
ag7
(g9
S'\x8c\x05\xaa@'
tRp137
ag7
(g9
S'\x0c\xd4\xce@'
tRp138
ag7
(g9
S'\xe4!\xfd@'
tRp139
ag7
(g9
S'\xae\xf2\x17A'
tRp140
ag7
(g9
S'\x02t1A'
tRp141
ag7
(g9
S'\xf2\xe2IA'
tRp142
ag7
(g9
S'\xae\xa6cA'
tRp143
ag7
(g9
S'\xc6\xfb}A'
tRp144
ag7
(g9
S'\x1b\xa3\x8cA'
tRp145
ag7
(g9
S'\xfb\xe7\x99A'
tRp146
ag7
(g9
S'\x9d\xe2\xa6A'
tRp147
ag7
(g9
S'\xad\x01\xb5A'
tRp148
ag7
(g9
S'\xaf\xf4\xc3A'
tRp149
ag7
(g9
S'S\xae\xd3A'
tRp150
ag7
(g9
S'\xeb\x84\xe3A'
tRp151
ag7
(g9
S'U\xb2\xf2A'
tRp152
ag7
(g9
S'R&\x01B'
tRp153
ag7
(g9
S'\x1e\x96\tB'
tRp154
ag7
(g9
S'\x18Q\x15B'
tRp155
ag7
(g9
S'\x02K\x1cB'
tRp156
ag7
(g9
S'vL#B'
tRp157
ag7
(g9
S'\x18M*B'
tRp158
ag7
(g9
S'\x1e\x94-B'
tRp159
ag7
(g9
S'\xa0\xa44B'
tRp160
ag7
(g9
S'R$;B'
tRp161
ag7
(g9
S'h\xa9@B'
tRp162
ag7
(g9
S'L\x0cEB'
tRp163
ag7
(g9
S'\x8c\x95JB'
tRp164
ag7
(g9
S'\xfc\xe0LB'
tRp165
ag7
(g9
S'\xb2\x95NB'
tRp166
ag7
(g9
S'|WOB'
tRp167
ag7
(g9
S'\xa8[OB'
tRp168
ag7
(g9
S'\x1c\x1eNB'
tRp169
ag7
(g9
S'PeKB'
tRp170
ag7
(g9
S'V\xd3BB'
tRp171
ag7
(g9
S'\xec\r>B'
tRp172
ag7
(g9
S'<\x0b3B'
tRp173
ag7
(g9
S'|\x90\x1eB'
tRp174
ag7
(g9
S'n\x01\x10B'
tRp175
ag7
(g9
S'p\x01\x01B'
tRp176
ag7
(g9
S'\xf9L\xe3A'
tRp177
ag7
(g9
S'kk\xc4A'
tRp178
ag7
(g9
S'eQ\xa6A'
tRp179
ag7
(g9
S'-*\x8bA'
tRp180
ag7
(g9
S'v\xbagA'
tRp181
ag7
(g9
S'\xfai@A'
tRp182
ag7
(g9
S'\x96?\x1eA'
tRp183
ag7
(g9
S"*'\x0fA"
tRp184
ag7
(g9
S'\x0c\x13\xd2@'
tRp185
ag7
(g9
S'\xd4x\xac@'
tRp186
ag7
(g9
S'\x04&\x8e@'
tRp187
ag7
(g9
S'8\xd0i@'
tRp188
ag7
(g9
S'8%2@'
tRp189
ag7
(g9
S'\x08a!@'
tRp190
ag7
(g9
S'\xd8\xe6\x0b@'
tRp191
ag7
(g9
S'pv\xe6?'
tRp192
ag7
(g9
S'P\x8c\xd3?'
tRp193
ag7
(g9
S'\x90/\xc8?'
tRp194
ag7
(g9
S'P\x0c\xbe?'
tRp195
ag7
(g9
S'\xd0\x0b\xae?'
tRp196
ag7
(g9
S'\xd0\x0b\xae?'
tRp197
ag7
(g9
S'\xf0\x97\xad?'
tRp198
ag7
(g9
S'p=\xa6?'
tRp199
ag7
(g9
S'\xf0z\x9f?'
tRp200
ag7
(g9
S'\x90y\x9b?'
tRp201
ag7
(g9
S'PD\x9a?'
tRp202
ag7
(g9
S'PD\x9a?'
tRp203
ag7
(g9
S'\xf0\xff\xa0?'
tRp204
ag7
(g9
S'\x10\xb8\x99?'
tRp205
ag7
(g9
S'0\xec\x9b?'
tRp206
ag7
(g9
S'p\x02\x99?'
tRp207
ag7
(g9
S'\xd0\x1c\x90?'
tRp208
ag7
(g9
S'\xf0\xae\x90?'
tRp209
ag7
(g9
S'\xf0\xea\x8e?'
tRp210
ag7
(g9
S'\xd0\xea\x8e?'
tRp211
ag7
(g9
S'0Z\x94?'
tRp212
ag7
(g9
S'\xf0j\x95?'
tRp213
ag7
(g9
S'p\t\xa1?'
tRp214
ag7
(g9
S'0\xfd\xf0?'
tRp215
ag7
(g9
S'\x18!\x0c@'
tRp216
ag7
(g9
S'\x98J\x1a@'
tRp217
ag7
(g9
S'\x08\x83I@'
tRp218
ag7
(g9
S'(vy@'
tRp219
ag7
(g9
S't\xef\x9a@'
tRp220
ag7
(g9
S'\xf4\xc4\xaf@'
tRp221
ag7
(g9
S'\xc4\xf7\xf6@'
tRp222
ag7
(g9
S'V\xaf\x17A'
tRp223
ag7
(g9
S'\xce\x865A'
tRp224
ag7
(g9
S'\x9a\x18TA'
tRp225
ag7
(g9
S'.\xb1uA'
tRp226
ag7
(g9
S'\x837\x8dA'
tRp227
ag7
(g9
S'\xdfc\xa1A'
tRp228
ag7
(g9
S'\x17O\xb5A'
tRp229
ag7
(g9
S'uD\xc8A'
tRp230
ag7
(g9
S'\xe5R\xdbA'
tRp231
ag7
(g9
S'\xc7X\xe5A'
tRp232
ag7
(g9
S'\xe0\xc9\x05B'
tRp233
ag7
(g9
S'\xc4\xd3\nB'
tRp234
ag7
(g9
S'\x18a\x0fB'
tRp235
ag7
(g9
S'&\x1f\x1eB'
tRp236
ag7
(g9
S"\xe6}'B"
tRp237
ag7
(g9
S'\xe8c0B'
tRp238
ag7
(g9
S'\x96T4B'
tRp239
ag7
(g9
S'\xce{@B'
tRp240
ag7
(g9
S'\xb2FDB'
tRp241
ag7
(g9
S'&\x9bEB'
tRp242
ag7
(g9
S'\xf4\xfdCB'
tRp243
ag7
(g9
S'\xd2u@B'
tRp244
ag7
(g9
S'X^;B'
tRp245
ag7
(g9
S'`$5B'
tRp246
ag7
(g9
S'Ni1B'
tRp247
ag7
(g9
S'^\xf8%B'
tRp248
ag7
(g9
S'\xce\xd4\x1dB'
tRp249
ag7
(g9
S'BK\x15B'
tRp250
ag7
(g9
S'\x14Y\x07B'
tRp251
ag7
(g9
S'\xef(\xfbA'
tRp252
ag7
(g9
S'\xe5k\xf1A'
tRp253
ag7
(g9
S'/\xd1\xdbA'
tRp254
ag7
(g9
S'\xd7j\xbaA'
tRp255
ag7
(g9
S'?f\xafA'
tRp256
ag7
(g9
S'\x81s\x90A'
tRp257
ag7
(g9
S'BFzA'
tRp258
ag7
(g9
S'\xca\xb2WA'
tRp259
ag7
(g9
S'\x0eb8A'
tRp260
ag7
(g9
S'\x92U\x1cA'
tRp261
ag7
(g9
S'\xc6\xd6\x03A'
tRp262
ag7
(g9
S'\xacQ\xdb@'
tRp263
ag7
(g9
S'\xd43\xb5@'
tRp264
ag7
(g9
S'\x9c\x11\x96@'
tRp265
ag7
(g9
S'h\xccr@'
tRp266
ag7
(g9
S'x\x80@@'
tRp267
ag7
(g9
S'Xj\x1c@'
tRp268
ag7
(g9
S'xX\x05@'
tRp269
ag7
(g9
S'\xb0\xdc\xe9?'
tRp270
ag7
(g9
S'\x10\xf7\xd2?'
tRp271
ag7
(g9
S'pM\xbd?'
tRp272
ag7
(g9
S'\xb0/\xb2?'
tRp273
ag7
(g9
S'\x10\x93\xa2?'
tRp274
ag7
(g9
S'\x90\xe1\x99?'
tRp275
ag7
(g9
S'\xb0\x82\x94?'
tRp276
ag7
(g9
S'\xd0M\x96?'
tRp277
ag7
(g9
S'\xf0m\x8f?'
tRp278
ag7
(g9
S'P=\x92?'
tRp279
ag7
(g9
S'\x90\x7f\x8a?'
tRp280
ag7
(g9
S'\xb0\xbe\x86?'
tRp281
ag7
(g9
S'0u\x88?'
tRp282
ag7
(g9
S'\xd0}\x8b?'
tRp283
ag7
(g9
S'\xd0\x19\x8c?'
tRp284
ag7
(g9
S'pd\x86?'
tRp285
ag7
(g9
S'\xf0!\x82?'
tRp286
ag7
(g9
S'pd\x84?'
tRp287
ag7
(g9
S'\xf0\x01\x86?'
tRp288
ag7
(g9
S'\xb0\x9c\x8b?'
tRp289
ag7
(g9
S'\xd0\x94\x80?'
tRp290
ag7
(g9
S'\xa0\xbfm?'
tRp291
ag7
(g9
S'`\xdb_?'
tRp292
ag7
(g9
S' \x83h?'
tRp293
ag7
(g9
S'\xa0\xdco?'
tRp294
ag7
(g9
S' \xedh?'
tRp295
ag7
(g9
S'`&a?'
tRp296
ag7
(g9
S'`\x05b?'
tRp297
ag7
(g9
S'\xf0\xab\x83?'
tRp298
ag7
(g9
S'\x10\xa3\x93?'
tRp299
ag7
(g9
S'\xd0\xee\xac?'
tRp300
ag7
(g9
S'\xb0\x1f\xcc?'
tRp301
ag7
(g9
S'PS\xf0?'
tRp302
ag7
(g9
S'X%\x08@'
tRp303
ag7
(g9
S'h\xcf\x1c@'
tRp304
ag7
(g9
S'h\xc46@'
tRp305
ag7
(g9
S'H\x9bX@'
tRp306
ag7
(g9
S'h\xa0~@'
tRp307
ag7
(g9
S'\xdc%\x93@'
tRp308
ag7
(g9
S'\xc4a\xab@'
tRp309
ag7
(g9
S'\xfc\x0c\xc6@'
tRp310
ag7
(g9
S'4\xbf\xe1@'
tRp311
ag7
(g9
S'\x84\x02\xff@'
tRp312
ag7
(g9
S'\xb2u\x0fA'
tRp313
ag7
(g9
S'n\x00)A'
tRp314
ag7
(g9
S'\x12a:A'
tRp315
ag7
(g9
S'>oJA'
tRp316
ag7
(g9
S'\xba\x1b\\A'
tRp317
ag7
(g9
S'>\x88nA'
tRp318
ag7
(g9
S'\xa13\x80A'
tRp319
ag7
(g9
S's\x91\x88A'
tRp320
ag7
(g9
S'\x17\xf3\x8fA'
tRp321
ag7
(g9
S'\xb7Z\x97A'
tRp322
ag7
(g9
S'\x85\xe0\x9eA'
tRp323
ag7
(g9
S'3\xaf\xa7A'
tRp324
ag7
(g9
S'{{\xb1A'
tRp325
ag7
(g9
S'e\x8b\xbbA'
tRp326
ag7
(g9
S'\x13\xb2\xc6A'
tRp327
ag7
(g9
S'm\xe6\xd2A'
tRp328
ag7
(g9
S'G%\xe0A'
tRp329
ag7
(g9
S'u)\xf2A'
tRp330
ag7
(g9
S'?\xfa\xf7A'
tRp331
ag7
(g9
S'\x82V\x00B'
tRp332
ag7
(g9
S'z\x10\x04B'
tRp333
ag7
(g9
S'Z\x11\tB'
tRp334
ag7
(g9
S'^\xc9\x0bB'
tRp335
ag7
(g9
S"\xda'\x0eB"
tRp336
ag7
(g9
S'"\xab\x10B'
tRp337
ag7
(g9
S'\xa2v\x13B'
tRp338
ag7
(g9
S'\xd8]\x16B'
tRp339
ag7
(g9
S'P\xc0\x19B'
tRp340
ag7
(g9
S'd[\x1dB'
tRp341
ag7
(g9
S'4\xd3 B'
tRp342
ag7
(g9
S'l\x01$B'
tRp343
ag7
(g9
S'l?&B'
tRp344
ag7
(g9
S'\x16\xf3&B'
tRp345
ag7
(g9
S'\xfe)&B'
tRp346
ag7
(g9
S'\xf6\x17$B'
tRp347
ag7
(g9
S'\xfe\xfc\x1dB'
tRp348
ag7
(g9
S'\xf0q\x18B'
tRp349
ag7
(g9
S'\x92\xf3\x11B'
tRp350
ag7
(g9
S'\x84\xee\tB'
tRp351
ag7
(g9
S'\xcc\xcf\x00B'
tRp352
ag7
(g9
S'uO\xf8A'
tRp353
ag7
(g9
S'uf\xdaA'
tRp354
ag7
(g9
S'G\xe7\xc5A'
tRp355
ag7
(g9
S'\xf5\x04\xb1A'
tRp356
ag7
(g9
S'\xdb\xc7\x9cA'
tRp357
ag7
(g9
S'IP\x8aA'
tRp358
ag7
(g9
S'v_rA'
tRp359
ag7
(g9
S'\x1a@SA'
tRp360
ag7
(g9
S'\xde`6A'
tRp361
ag7
(g9
S'\xae6\x1cA'
tRp362
ag7
(g9
S'\xaa\xd4\x03A'
tRp363
ag7
(g9
S'\xcc\xee\xdd@'
tRp364
ag7
(g9
S'l\x89\xbb@'
tRp365
ag7
(g9
S'\xf4\x0e\xa0@'
tRp366
ag7
(g9
S'd\xea\x86@'
tRp367
ag7
(g9
S'\xe8\x14e@'
tRp368
ag7
(g9
S'XeC@'
tRp369
ag7
(g9
S'XP9@'
tRp370
ag7
(g9
S'\x08\x02\x12@'
tRp371
ag7
(g9
S'\xb0\x7f\xff?'
tRp372
ag7
(g9
S'\xd0\xf9\xd9?'
tRp373
ag7
(g9
S'\xd0>\xba?'
tRp374
ag7
(g9
S'\xf0\x1b\xa8?'
tRp375
ag7
(g9
S'\xb0\xa6\x97?'
tRp376
ag7
(g9
S'0\x15\x99?'
tRp377
ag7
(g9
S'\xf01\x8d?'
tRp378
ag7
(g9
S'\xd0P\x8d?'
tRp379
ag7
(g9
S'\x90\x07\x8d?'
tRp380
ag7
(g9
S'\xd0\x83\x83?'
tRp381
ag7
(g9
S'0_\x81?'
tRp382
ag7
(g9
S'\xd0\xd9\x80?'
tRp383
ag7
(g9
S'\x90\xe9\x83?'
tRp384
ag7
(g9
S'0\x9d\x82?'
tRp385
ag7
(g9
S'`\xf1l?'
tRp386
ag7
(g9
S'\xe0=h?'
tRp387
ag7
(g9
S' 6c?'
tRp388
ag7
(g9
S'`\x04i?'
tRp389
ag7
(g9
S'\xe0\xdcr?'
tRp390
ag7
(g9
S'\xe0\x1di?'
tRp391
ag7
(g9
S'\xe0Yr?'
tRp392
ag7
(g9
S'\xe0\xb0y?'
tRp393
ag7
(g9
S' 1o?'
tRp394
ag7
(g9
S'\xe0~m?'
tRp395
ag7
(g9
S'\xa0\x8cw?'
tRp396
ag7
(g9
S'P\x1f\x80?'
tRp397
ag7
(g9
S'`\xb9u?'
tRp398
ag7
(g9
S'\xe09z?'
tRp399
ag7
(g9
S'`iw?'
tRp400
ag7
(g9
S'\xa0\xe0r?'
tRp401
ag7
(g9
S'\xe0\xd0|?'
tRp402
ag7
(g9
S'\x10W\x82?'
tRp403
ag7
(g9
S'\x90 \x88?'
tRp404
ag7
(g9
S'\x10\x96\x92?'
tRp405
ag7
(g9
S'\x10\xa9\xa2?'
tRp406
ag7
(g9
S'\xd0\x8e\xbc?'
tRp407
ag7
(g9
S'\x10%\xdc?'
tRp408
ag7
(g9
S'\x88\xfa\x02@'
tRp409
ag7
(g9
S'\xb8T\x1a@'
tRp410
ag7
(g9
S'\x88\xc17@'
tRp411
ag7
(g9
S'(\x02X@'
tRp412
ag7
(g9
S'\xa8x\x7f@'
tRp413
ag7
(g9
S'\x1c\xf1\x95@'
tRp414
ag7
(g9
S'D\x16\xac@'
tRp415
ag7
(g9
S'\\\xf9\xc3@'
tRp416
ag7
(g9
S'<\xaa\xdc@'
tRp417
ag7
(g9
S'|{\xf9@'
tRp418
ag7
(g9
S'v\x94\x13A'
tRp419
ag7
(g9
S'"\xd9\x1cA'
tRp420
ag7
(g9
S'\xea\x198A'
tRp421
ag7
(g9
S'~K@A'
tRp422
ag7
(g9
S'~\xea\\A'
tRp423
ag7
(g9
S"&'pA"
tRp424
ag7
(g9
S'\x93%\x82A'
tRp425
ag7
(g9
S'?\xbf\x8cA'
tRp426
ag7
(g9
S'\x9dn\x97A'
tRp427
ag7
(g9
S'_\xd1\xa1A'
tRp428
ag7
(g9
S'\x01\xcd\xacA'
tRp429
ag7
(g9
S'\xc7j\xbdA'
tRp430
ag7
(g9
S'\x97g\xc7A'
tRp431
ag7
(g9
S'mi\xd0A'
tRp432
ag7
(g9
S'\xc5\x15\xd9A'
tRp433
ag7
(g9
S'S\xfd\xe0A'
tRp434
ag7
(g9
S'S\xfd\xe0A'
tRp435
ag7
(g9
S'[3\xecA'
tRp436
ag7
(g9
S'#\xd6\xf4A'
tRp437
ag7
(g9
S'\xa7q\xfdA'
tRp438
ag7
(g9
S'\xfc\x01\x03B'
tRp439
ag7
(g9
S'\x88\xe8\x06B'
tRp440
ag7
(g9
S'n\x91\x0cB'
tRp441
ag7
(g9
S'\xde\xb3\x0fB'
tRp442
ag7
(g9
S'\x06\x9d\x12B'
tRp443
ag7
(g9
S'\xc8\x18\x15B'
tRp444
ag7
(g9
S'X\xd1\x16B'
tRp445
ag7
(g9
S'\xe2\xd0\x17B'
tRp446
ag7
(g9
S'\xdea\x19B'
tRp447
ag7
(g9
S'n\xbd\x19B'
tRp448
ag7
(g9
S'\x84\xd4\x19B'
tRp449
ag7
(g9
S'\xcc\x8e\x19B'
tRp450
ag7
(g9
S'\xbe\xde\x18B'
tRp451
ag7
(g9
S"*'\x18B"
tRp452
ag7
(g9
S'\xe2}\x16B'
tRp453
ag7
(g9
S'\x0c<\x13B'
tRp454
ag7
(g9
S'b\x98\x10B'
tRp455
ag7
(g9
S'\x1eG\rB'
tRp456
ag7
(g9
S'"\xf2\x08B'
tRp457
ag7
(g9
S'\x18\x9c\x03B'
tRp458
ag7
(g9
S'QC\xfaA'
tRp459
ag7
(g9
S'\xb9.\xecA'
tRp460
ag7
(g9
S'\xb1\xcf\xdcA'
tRp461
ag7
(g9
S'qP\xccA'
tRp462
ag7
(g9
S'\x97\x06\xbbA'
tRp463
ag7
(g9
S'3[\xa9A'
tRp464
ag7
(g9
S'\xfbn\x98A'
tRp465
ag7
(g9
S'5\xa7\x88A'
tRp466
ag7
(g9
S'\xd6\x9ftA'
tRp467
ag7
(g9
S'6_ZA'
tRp468
ag7
(g9
S'F\xf94A'
tRp469
ag7
(g9
S'z\xf7\x1fA'
tRp470
ag7
(g9
S'\xa2d\x15A'
tRp471
ag7
(g9
S'\xe6o\x04A'
tRp472
ag7
(g9
S'D\xf6\xdb@'
tRp473
ag7
(g9
S'\\\x9f\xd1@'
tRp474
ag7
(g9
S'\xa4j\xb1@'
tRp475
ag7
(g9
S'\xb4G\xa6@'
tRp476
ag7
(g9
S'<\x81\x8d@'
tRp477
ag7
(g9
S',\x0e\x87@'
tRp478
ag7
(g9
S'X\x02d@'
tRp479
ag7
(g9
S'\xa8w\\@'
tRp480
ag7
(g9
S'h\xd2E@'
tRp481
ag7
(g9
S'8*4@'
tRp482
ag7
(g9
S'\x88S%@'
tRp483
ag7
(g9
S'x-\x1a@'
tRp484
ag7
(g9
S'\xe8i\x14@'
tRp485
ag7
(g9
S'\xb86\x11@'
tRp486
ag7
(g9
S'\xc8\xf0\r@'
tRp487
ag7
(g9
S'\x98\xe9\x08@'
tRp488
ag7
(g9
S'\x98U\x05@'
tRp489
ag7
(g9
S'\xd8D\x06@'
tRp490
ag7
(g9
S'\xf8\xa9\x04@'
tRp491
ag7
(g9
S'\xb8\xea\x04@'
tRp492
ag7
(g9
S'X(\x07@'
tRp493
ag7
(g9
S'h\xa2\t@'
tRp494
ag7
(g9
S'\xc8\x11\x05@'
tRp495
ag7
(g9
S'Xd\x08@'
tRp496
ag7
(g9
S'xl\n@'
tRp497
ag7
(g9
S'(\x02\x08@'
tRp498
ag7
(g9
S'\xd8\xd6\n@'
tRp499
ag7
(g9
S'\x18\xbb\t@'
tRp500
ag7
(g9
S'\xc8#\x08@'
tRp501
ag7
(g9
S'\x98G\x07@'
tRp502
ag7
(g9
S'\x98*\x0c@'
tRp503
ag7
(g9
S'\x88#\n@'
tRp504
ag7
(g9
S'8\xa4\n@'
tRp505
ag7
(g9
S'\xc8A\x0c@'
tRp506
ag7
(g9
S'\x085\x0e@'
tRp507
ag7
(g9
S'\x88\xa1\x10@'
tRp508
ag7
(g9
S'(\x0c\x10@'
tRp509
ag7
(g9
S'\x88\x99\x0c@'
tRp510
ag7
(g9
S'\xe8\xa9\x0e@'
tRp511
ag7
(g9
S'x\xcd\x11@'
tRp512
ag7
(g9
S'HQ\x17@'
tRp513
ag7
(g9
S'\xc8\xa7 @'
tRp514
ag7
(g9
S'\xb8\xf5)@'
tRp515
ag7
(g9
S'(\x1a7@'
tRp516
ag7
(g9
S'\x88eG@'
tRp517
ag7
(g9
S'\xa8Ev@'
tRp518
ag7
(g9
S'\x94}\x8f@'
tRp519
ag7
(g9
S'\xcc\xed\xa9@'
tRp520
ag7
(g9
S',:\xca@'
tRp521
ag7
(g9
S'4\x14\xf0@'
tRp522
ag7
(g9
S'\xba\xd8\x0bA'
tRp523
ag7
(g9
S'r\xde\x14A'
tRp524
ag7
(g9
S'"\xbd5A'
tRp525
ag7
(g9
S'\x06{LA'
tRp526
ag7
(g9
S'\xc2\x16dA'
tRp527
ag7
(g9
S'\xba\xc2zA'
tRp528
ag7
(g9
S'\x11\xa6\x8cA'
tRp529
ag7
(g9
S'\x11\xa6\x8cA'
tRp530
ag7
(g9
S'y\x8f\xa1A'
tRp531
ag7
(g9
S'\xddn\xabA'
tRp532
ag7
(g9
S'\xad"\xb6A'
tRp533
ag7
(g9
S'\x1b\xc3\xc1A'
tRp534
ag7
(g9
S'\xa9\x13\xcdA'
tRp535
ag7
(g9
S'\x9b\x85\xd8A'
tRp536
ag7
(g9
S']\x04\xe4A'
tRp537
ag7
(g9
S'\xc5\x0f\xefA'
tRp538
ag7
(g9
S'\x11\x1e\xf9A'
tRp539
ag7
(g9
S'\xa0\x00\x01B'
tRp540
ag7
(g9
S'\x02,\x05B'
tRp541
ag7
(g9
S'PL\x08B'
tRp542
ag7
(g9
S'\xbc\x0e\x0bB'
tRp543
ag7
(g9
S'x{\rB'
tRp544
ag7
(g9
S'\x86\r\x10B'
tRp545
ag7
(g9
S' \xde\x12B'
tRp546
ag7
(g9
S'\xf6\xbc\x15B'
tRp547
ag7
(g9
S'\x0c\xb0\x18B'
tRp548
ag7
(g9
S'l\xe4\x1bB'
tRp549
ag7
(g9
S'J\x81\x1fB'
tRp550
ag7
(g9
S'B\xc8"B'
tRp551
ag7
(g9
S'd\x9f%B'
tRp552
ag7
(g9
S"<D'B"
tRp553
ag7
(g9
S'z\xe3(B'
tRp554
ag7
(g9
S'\xac\xeb(B'
tRp555
ag7
(g9
S'*\xc4(B'
tRp556
ag7
(g9
S'\\\xe3%B'
tRp557
ag7
(g9
S'\xc0\xa9$B'
tRp558
ag7
(g9
S'\x82\xac\x1fB'
tRp559
ag7
(g9
S'\x90o\x1aB'
tRp560
ag7
(g9
S'\xb8B\x14B'
tRp561
ag7
(g9
S'\xac\x0e\rB'
tRp562
ag7
(g9
S'\x9e\xde\x04B'
tRp563
ag7
(g9
S'\x19\xf3\xf6A'
tRp564
ag7
(g9
S'\xb7I\xe1A'
tRp565
ag7
(g9
S';\xf2\xcbA'
tRp566
ag7
(g9
S'\xff\xe4\xb6A'
tRp567
ag7
(g9
S'_Y\xa2A'
tRp568
ag7
(g9
S'\x1b\xbb\x8eA'
tRp569
ag7
(g9
S'\xeauyA'
tRp570
ag7
(g9
S'\xba\x94WA'
tRp571
ag7
(g9
S'\x8e4:A'
tRp572
ag7
(g9
S'R\xaf A'
tRp573
ag7
(g9
S'\xa6\xe9\x0bA'
tRp574
ag7
(g9
S'\xec\xca\xf5@'
tRp575
ag7
(g9
S'\xbc\xf5\xd8@'
tRp576
ag7
(g9
S'Tc\xbf@'
tRp577
ag7
(g9
S'\x04\xf4\xa8@'
tRp578
ag7
(g9
S'$r\x96@'
tRp579
ag7
(g9
S'\xbc\x80\x87@'
tRp580
ag7
(g9
S'(Kt@'
tRp581
ag7
(g9
S'\xd8\xb3T@'
tRp582
ag7
(g9
S'\xa8[I@'
tRp583
ag7
(g9
S'\x88>8@'
tRp584
ag7
(g9
S'\xf8\xa9-@'
tRp585
ag7
(g9
S"\x18g'@"
tRp586
ag7
(g9
S'\x18!%@'
tRp587
ag7
(g9
S'X\x96#@'
tRp588
ag7
(g9
S'\xc8W\x1d@'
tRp589
ag7
(g9
S'\xd8\xf9\x1b@'
tRp590
ag7
(g9
S'\x88C\x17@'
tRp591
ag7
(g9
S'\xb8R\x19@'
tRp592
ag7
(g9
S'h/\x1c@'
tRp593
ag7
(g9
S'x\x82\x1b@'
tRp594
ag7
(g9
S'8\x91\x19@'
tRp595
ag7
(g9
S'H\xb5\x18@'
tRp596
ag7
(g9
S'\xa8\x15\x1b@'
tRp597
ag7
(g9
S'\x98\x11\x1b@'
tRp598
ag7
(g9
S'x\xfc\x1f@'
tRp599
ag7
(g9
S'\x08&\x1e@'
tRp600
ag7
(g9
S'\x88\xf3 @'
tRp601
ag7
(g9
S'\x18y\x1e@'
tRp602
ag7
(g9
S'x\x13\x1e@'
tRp603
ag7
(g9
S'\x98\x1c\x1e@'
tRp604
ag7
(g9
S'H\xbe!@'
tRp605
ag7
(g9
S'\x88\x11$@'
tRp606
ag7
(g9
S'\x08\xaf\x1f@'
tRp607
ag7
(g9
S'\x98\xfb!@'
tRp608
ag7
(g9
S"hT'@"
tRp609
ag7
(g9
S"hT'@"
tRp610
ag7
(g9
S'\xc8?.@'
tRp611
ag7
(g9
S'\x18J3@'
tRp612
ag7
(g9
S'(y4@'
tRp613
ag7
(g9
S'X\x83?@'
tRp614
ag7
(g9
S'\xc8\xf6I@'
tRp615
ag7
(g9
S'h\x97W@'
tRp616
ag7
(g9
S'\x88\xedj@'
tRp617
ag7
(g9
S'$\xc6\x80@'
tRp618
ag7
(g9
S'\x0c\xae\x8e@'
tRp619
ag7
(g9
S'|*\x9f@'
tRp620
ag7
(g9
S'|*\x9f@'
tRp621
ag7
(g9
S'\x14h\xe0@'
tRp622
ag7
(g9
S'&\xad\x04A'
tRp623
ag7
(g9
S'\x92\x19\x19A'
tRp624
ag7
(g9
S'\x02\xd7,A'
tRp625
ag7
(g9
S'r\x03@A'
tRp626
ag7
(g9
S'\xfa\x16SA'
tRp627
ag7
(g9
S'\x16\xefeA'
tRp628
ag7
(g9
S'\x82\x84xA'
tRp629
ag7
(g9
S'\xc9\xb6\x85A'
tRp630
ag7
(g9
S'\x83\xa8\x8fA'
tRp631
ag7
(g9
S'\x19?\x9bA'
tRp632
ag7
(g9
S'\xe9C\xa7A'
tRp633
ag7
(g9
S'}\x80\xb3A'
tRp634
ag7
(g9
S'\x11\xb8\xc5A'
tRp635
ag7
(g9
S'\xe3\x9c\xd2A'
tRp636
ag7
(g9
S'\xbd2\xd8A'
tRp637
ag7
(g9
S'\xa3\xcb\xe2A'
tRp638
ag7
(g9
S'\xd9{\xf1A'
tRp639
ag7
(g9
S'\x89#\xfaA'
tRp640
ag7
(g9
S'[\xac\xfeA'
tRp641
ag7
(g9
S'B\x06\x03B'
tRp642
ag7
(g9
S'\x909\x06B'
tRp643
ag7
(g9
S'x\x12\nB'
tRp644
ag7
(g9
S'\xb6\xd9\x0bB'
tRp645
ag7
(g9
S'\x108\rB'
tRp646
ag7
(g9
S'\xceA\x0eB'
tRp647
ag7
(g9
S'\xae}\x0eB'
tRp648
ag7
(g9
S'\xb8.\x0fB'
tRp649
ag7
(g9
S'$\xd6\x0fB'
tRp650
ag7
(g9
S'>\xec\x0fB'
tRp651
ag7
(g9
S'\x1c\xd3\x0fB'
tRp652
ag7
(g9
S't\x94\x0fB'
tRp653
ag7
(g9
S'\xfe4\x0fB'
tRp654
ag7
(g9
S'\xee\xae\rB'
tRp655
ag7
(g9
S'&\x8f\x0bB'
tRp656
ag7
(g9
S'~X\nB'
tRp657
ag7
(g9
S'N\xe4\x05B'
tRp658
ag7
(g9
S'\xe6p\x04B'
tRp659
ag7
(g9
S'N\x80\x00B'
tRp660
ag7
(g9
S'\xd12\xf8A'
tRp661
ag7
(g9
S'\x8d\x81\xe7A'
tRp662
ag7
(g9
S'\xe3\x9f\xd9A'
tRp663
ag7
(g9
S'Q\xfa\xd2A'
tRp664
ag7
(g9
S'\xb1\xde\xc3A'
tRp665
ag7
(g9
S'\xd7<\xadA'
tRp666
ag7
(g9
S'\xf9U\x9dA'
tRp667
ag7
(g9
S'\xc9\xad\x8dA'
tRp668
ag7
(g9
S'n\xc8{A'
tRp669
ag7
(g9
S'r\xb7NA'
tRp670
ag7
(g9
S'\xee\xdc3A'
tRp671
ag7
(g9
S'j`\x1cA'
tRp672
ag7
(g9
S'n\xe2\x07A'
tRp673
ag7
(g9
S'\xdc\xdd\xeb@'
tRp674
ag7
(g9
S'\x0c\x8f\xcb@'
tRp675
ag7
(g9
S'\xcc\x83\xb2@'
tRp676
ag7
(g9
S'\\\xbd\x9c@'
tRp677
ag7
(g9
S'd\x87\x8b@'
tRp678
ag7
(g9
S'\x98\xb2y@'
tRp679
ag7
(g9
S'H>]@'
tRp680
ag7
(g9
S'8\xefH@'
tRp681
ag7
(g9
S'\xb8\xa89@'
tRp682
ag7
(g9
S'\xe8\x130@'
tRp683
ag7
(g9
S'\xb8\x9d)@'
tRp684
ag7
(g9
S'\x98\xdd @'
tRp685
ag7
(g9
S'x=\x1d@'
tRp686
ag7
(g9
S'\xc8z\x16@'
tRp687
ag7
(g9
S'X\x95\x16@'
tRp688
ag7
(g9
S'\x08a\x17@'
tRp689
ag7
(g9
S'H\xaa\x16@'
tRp690
ag7
(g9
S'\x08K\x13@'
tRp691
ag7
(g9
S'\xf8\xa0\x11@'
tRp692
ag7
(g9
S'\x08c\x14@'
tRp693
ag7
(g9
S'\xa8Q\x18@'
tRp694
ag7
(g9
S'\xf82\x1d@'
tRp695
ag7
(g9
S'\x88K\x19@'
tRp696
ag7
(g9
S'H)\x15@'
tRp697
ag7
(g9
S'h\x18\x13@'
tRp698
ag7
(g9
S'x<\x13@'
tRp699
ag7
(g9
S'(\\\x0b@'
tRp700
ag7
(g9
S'(\xa8\x0b@'
tRp701
ag7
(g9
S'\xf8m\x05@'
tRp702
ag7
(g9
S'\x08C\x01@'
tRp703
ag7
(g9
S'\xd00\xfc?'
tRp704
ag7
(g9
S'\x10\xcd\xf9?'
tRp705
ag7
(g9
S'\xe8\xb8\x00@'
tRp706
ag7
(g9
S'(B\x01@'
tRp707
ag7
(g9
S'\x18\xbf\x02@'
tRp708
ag7
(g9
S'\xd8\xd9\x02@'
tRp709
ag7
(g9
S'\xd8\xd9\x02@'
tRp710
ag7
(g9
S'\xf8[\x06@'
tRp711
ag7
(g9
S'8D\x0e@'
tRp712
ag7
(g9
S'h\xc4\x12@'
tRp713
ag7
(g9
S'h^\x1b@'
tRp714
ag7
(g9
S'\x08\xec#@'
tRp715
ag7
(g9
S'\xc8\x1a*@'
tRp716
ag7
(g9
S'x\xfb3@'
tRp717
ag7
(g9
S'x\xe9B@'
tRp718
ag7
(g9
S'\x98K[@'
tRp719
ag7
(g9
S',\xbf\x81@'
tRp720
ag7
(g9
S'd\x1e\x9f@'
tRp721
ag7
(g9
S'\xe4\x13\xc1@'
tRp722
ag7
(g9
S'\xbc\x16\xe8@'
tRp723
ag7
(g9
S'V\x81\nA'
tRp724
ag7
(g9
S'\x9a^"A'
tRp725
ag7
(g9
S'\xbed:A'
tRp726
ag7
(g9
S'R\xa3PA'
tRp727
ag7
(g9
S'\xa2\x16gA'
tRp728
ag7
(g9
S'\xb26{A'
tRp729
ag7
(g9
S'%\xc6\x87A'
tRp730
ag7
(g9
S'\xcdX\x92A'
tRp731
ag7
(g9
S'W\x88\x9dA'
tRp732
ag7
(g9
S'\x17\x94\xaaA'
tRp733
ag7
(g9
S'\xd5@\xb8A'
tRp734
ag7
(g9
S'+\xee\xc6A'
tRp735
ag7
(g9
S'\xdb\x99\xdcA'
tRp736
ag7
(g9
S'\xc1=\xeaA'
tRp737
ag7
(g9
S'S(\xf6A'
tRp738
ag7
(g9
S'\xd7\xdd\xffA'
tRp739
ag7
(g9
S'\xac\xcd\x01B'
tRp740
ag7
(g9
S'\x82\xe0\x06B'
tRp741
ag7
(g9
S'L\x9e\x08B'
tRp742
ag7
(g9
S'$$\x0cB'
tRp743
ag7
(g9
S'&\xe4\x0cB'
tRp744
ag7
(g9
S'\x90K\x0fB'
tRp745
ag7
(g9
S'\x18L\x10B'
tRp746
ag7
(g9
S'\x8a6\x11B'
tRp747
ag7
(g9
S'\x98*\x12B'
tRp748
ag7
(g9
S'\xe2\xab\x12B'
tRp749
ag7
(g9
S'\xfc\xa1\x12B'
tRp750
ag7
(g9
S'N;\x12B'
tRp751
ag7
(g9
S'\xb0\xa1\x11B'
tRp752
ag7
(g9
S'\x9a\x06\x11B'
tRp753
ag7
(g9
S'\xec\xf1\x0fB'
tRp754
ag7
(g9
S'\xf4Q\x0eB'
tRp755
ag7
(g9
S'zC\x0cB'
tRp756
ag7
(g9
S':\xfc\tB'
tRp757
ag7
(g9
S'\xd4z\x06B'
tRp758
ag7
(g9
S'\xd8\xee\x03B'
tRp759
ag7
(g9
S'\xb4\xee\x00B'
tRp760
ag7
(g9
S'\x1d$\xfbA'
tRp761
ag7
(g9
S'O\x01\xf4A'
tRp762
ag7
(g9
S'\xd1\xd8\xeaA'
tRp763
ag7
(g9
S'}\xe8\xe0A'
tRp764
ag7
(g9
S'=v\xdbA'
tRp765
ag7
(g9
S'\x0f\xe0\xc4A'
tRp766
ag7
(g9
S'\xa5\xa2\xb3A'
tRp767
ag7
(g9
S'\xd3\x1b\xa1A'
tRp768
ag7
(g9
S'13\x8eA'
tRp769
ag7
(g9
S'\x86\x8ewA'
tRp770
ag7
(g9
S'b\x16VA'
tRp771
ag7
(g9
S':\x9e7A'
tRp772
ag7
(g9
S'\x86\xa8\x0eA'
tRp773
ag7
(g9
S'\x8cJ\xf1@'
tRp774
ag7
(g9
S'\xf4\xdf\xcd@'
tRp775
ag7
(g9
S'<s\xac@'
tRp776
ag7
(g9
S'\x1c\x1f\x92@'
tRp777
ag7
(g9
S'x\xa5|@'
tRp778
ag7
(g9
S'X\x92a@'
tRp779
ag7
(g9
S'\x887N@'
tRp780
ag7
(g9
S'H\x02=@'
tRp781
ag7
(g9
S'xj/@'
tRp782
ag7
(g9
S'h\xf1%@'
tRp783
ag7
(g9
S'H\x03"@'
tRp784
ag7
(g9
S'\xc8r @'
tRp785
ag7
(g9
S'\x98p\x1f@'
tRp786
ag7
(g9
S'\xe8\xdb\x1b@'
tRp787
ag7
(g9
S'\x18\xd5\x19@'
tRp788
ag7
(g9
S'\x88\x08\x17@'
tRp789
ag7
(g9
S'(A\x18@'
tRp790
ag7
(g9
S'h\x9a\x17@'
tRp791
ag7
(g9
S'\xd8\xb0\x17@'
tRp792
ag7
(g9
S'h\x08\x1c@'
tRp793
ag7
(g9
S'\xd8\xe0\x1a@'
tRp794
ag7
(g9
S'\xc8\x12\x1c@'
tRp795
ag7
(g9
S'\x08\x04\x13@'
tRp796
ag7
(g9
S'8*\x15@'
tRp797
ag7
(g9
S'(S\x11@'
tRp798
ag7
(g9
S'\x08\xd8\x13@'
tRp799
ag7
(g9
S'h\x83\x12@'
tRp800
ag7
(g9
S'\x08\xfc\x11@'
tRp801
ag7
(g9
S'\xb8\x05\x14@'
tRp802
ag7
(g9
S'\x186\x15@'
tRp803
ag7
(g9
S'x\xa0\x16@'
tRp804
ag7
(g9
S'\xe8\xf6\x13@'
tRp805
ag7
(g9
S'\xa8\x89\x13@'
tRp806
ag7
(g9
S'\x98D\x14@'
tRp807
ag7
(g9
S'(\x8b\x17@'
tRp808
ag7
(g9
S'hx\x19@'
tRp809
ag7
(g9
S'\xd8j\x17@'
tRp810
ag7
(g9
S'\xc8`\x18@'
tRp811
ag7
(g9
S'\x88\xfb\x16@'
tRp812
ag7
(g9
S'\xd8\xc5\x16@'
tRp813
ag7
(g9
S'\x18?\x1b@'
tRp814
ag7
(g9
S'\x18\xad\x1d@'
tRp815
ag7
(g9
S'\x98b"@'
tRp816
ag7
(g9
S"\xa8o'@"
tRp817
ag7
(g9
S'\x98\x8f)@'
tRp818
ag7
(g9
S'xY1@'
tRp819
ag7
(g9
S'Xo<@'
tRp820
ag7
(g9
S'h8I@'
tRp821
ag7
(g9
S'X\x01X@'
tRp822
ag7
(g9
S'\x98\xc7f@'
tRp823
ag7
(g9
S'H\xdcz@'
tRp824
ag7
(g9
S'\xcc\x18\x8b@'
tRp825
ag7
(g9
S'L\xe0\x94@'
tRp826
ag7
(g9
S'\xe4x\xbe@'
tRp827
ag7
(g9
S'\xb4-\xe1@'
tRp828
ag7
(g9
S'R\xcf\x04A'
tRp829
ag7
(g9
S'\xea!\x1cA'
tRp830
ag7
(g9
S'N\xda4A'
tRp831
ag7
(g9
S'\x0e\xb1LA'
tRp832
ag7
(g9
S'b\xf7VA'
tRp833
ag7
(g9
S'z~lA'
tRp834
ag7
(g9
S'[\xde\x80A'
tRp835
ag7
(g9
S'\xc9\xc3\x8fA'
tRp836
ag7
(g9
S'\x01\x0e\x9aA'
tRp837
ag7
(g9
S'\x85\xd0\x9eA'
tRp838
ag7
(g9
S'\xe5V\xafA'
tRp839
ag7
(g9
S'm+\xc1A'
tRp840
ag7
(g9
S'\xf5\x0b\xccA'
tRp841
ag7
(g9
S'\xa3\xf4\xd6A'
tRp842
ag7
(g9
S'U\xb3\xe1A'
tRp843
ag7
(g9
S'\xed\xf3\xebA'
tRp844
ag7
(g9
S'Y/\xf5A'
tRp845
ag7
(g9
S'3\xf5\xfcA'
tRp846
ag7
(g9
S'\xfe^\x03B'
tRp847
ag7
(g9
S'XN\x06B'
tRp848
ag7
(g9
S'\xe4\xdf\x08B'
tRp849
ag7
(g9
S'h\xa4\x0bB'
tRp850
ag7
(g9
S'\xacx\x0eB'
tRp851
ag7
(g9
S'\x94i\x11B'
tRp852
ag7
(g9
S'dd\x14B'
tRp853
ag7
(g9
S'x\xcc\x16B'
tRp854
ag7
(g9
S'd\x9d\x18B'
tRp855
ag7
(g9
S'\x96\xcd\x19B'
tRp856
ag7
(g9
S'\x86\xf0\x1aB'
tRp857
ag7
(g9
S'\x14G\x1bB'
tRp858
ag7
(g9
S'\xaa\xfe\x1bB'
tRp859
ag7
(g9
S'\xfc\xa4\x1cB'
tRp860
ag7
(g9
S'\xa0\xcd\x1cB'
tRp861
ag7
(g9
S'\x1ep\x1cB'
tRp862
ag7
(g9
S'\xd8\xbd\x1bB'
tRp863
ag7
(g9
S'\x02\x06\x1bB'
tRp864
ag7
(g9
S'Vq\x19B'
tRp865
ag7
(g9
S'\xa6\x05\x18B'
tRp866
ag7
(g9
S'<\xe5\x16B'
tRp867
ag7
(g9
S'\xfa\xa8\x15B'
tRp868
ag7
(g9
S'\xaa\xa0\x13B'
tRp869
ag7
(g9
S'b{\x10B'
tRp870
ag7
(g9
S'dY\x0cB'
tRp871
ag7
(g9
S'Z\xa3\x06B'
tRp872
ag7
(g9
S'\x19\xb6\xf6A'
tRp873
ag7
(g9
S')|\xe3A'
tRp874
ag7
(g9
S"'x\xd8A"
tRp875
ag7
(g9
S'\x9d8\xb8A'
tRp876
ag7
(g9
S'O\xea\xacA'
tRp877
ag7
(g9
S'\x93\x05\x98A'
tRp878
ag7
(g9
S'\x1e\xf4tA'
tRp879
ag7
(g9
S'\xc2\xe2RA'
tRp880
ag7
(g9
S'\x8e\x125A'
tRp881
ag7
(g9
S'&\xb0\x1bA'
tRp882
ag7
(g9
S'R\x0b\x06A'
tRp883
ag7
(g9
S'\x84\x8a\xe6@'
tRp884
ag7
(g9
S',l\xc7@'
tRp885
ag7
(g9
S'\x0c>\xae@'
tRp886
ag7
(g9
S'T\xbe\xa1@'
tRp887
ag7
(g9
S'\xac\x1e\x88@'
tRp888
ag7
(g9
S'\x84\x17\x82@'
tRp889
ag7
(g9
S'\x08\x98o@'
tRp890
ag7
(g9
S'\xd8\x94V@'
tRp891
ag7
(g9
S'\x083F@'
tRp892
ag7
(g9
S'(\x98E@'
tRp893
ag7
(g9
S'\xe8\xc9=@'
tRp894
ag7
(g9
S'\xa8F8@'
tRp895
ag7
(g9
S'\xa8v7@'
tRp896
ag7
(g9
S'\xa8X8@'
tRp897
ag7
(g9
S'x\x0b:@'
tRp898
ag7
(g9
S'x\x0f8@'
tRp899
ag7
(g9
S'X\xcb7@'
tRp900
ag7
(g9
S'xG5@'
tRp901
ag7
(g9
S'\xb8\x928@'
tRp902
ag7
(g9
S'Xg:@'
tRp903
ag7
(g9
S'\x08\x1b8@'
tRp904
ag7
(g9
S'8_<@'
tRp905
ag7
(g9
S'\xd8B7@'
tRp906
ag7
(g9
S'\xa8\xca9@'
tRp907
ag7
(g9
S'\x88\x1e7@'
tRp908
ag7
(g9
S'8\xf5:@'
tRp909
ag7
(g9
S'\xd8-<@'
tRp910
ag7
(g9
S'\xd8\x03=@'
tRp911
ag7
(g9
S'h\xe0;@'
tRp912
ag7
(g9
S'\xf8;<@'
tRp913
ag7
(g9
S'\xd8\x9f=@'
tRp914
ag7
(g9
S'\xb8\xbb?@'
tRp915
ag7
(g9
S'\xf8p=@'
tRp916
ag7
(g9
S'\x98\xf1>@'
tRp917
ag7
(g9
S'\x98\xf2=@'
tRp918
ag7
(g9
S'h\x95@@'
tRp919
ag7
(g9
S'\xa8\x06@@'
tRp920
ag7
(g9
S'8\x05@@'
tRp921
ag7
(g9
S'\x98\x9aA@'
tRp922
ag7
(g9
S'\xc8_C@'
tRp923
ag7
(g9
S'\x88wB@'
tRp924
ag7
(g9
S'\xe8\xf7@@'
tRp925
ag7
(g9
S'8\xa8E@'
tRp926
ag7
(g9
S'\x08kI@'
tRp927
ag7
(g9
S'\xb8PQ@'
tRp928
ag7
(g9
S'\x88KZ@'
tRp929
ag7
(g9
S'h\xec_@'
tRp930
ag7
(g9
S'H\xeaj@'
tRp931
ag7
(g9
S'H)z@'
tRp932
ag7
(g9
S'\xa4\xf3\x87@'
tRp933
ag7
(g9
S'\x94\x8a\x94@'
tRp934
ag7
(g9
S'\xfc\x1f\xa1@'
tRp935
ag7
(g9
S'TX\xb3@'
tRp936
ag7
(g9
S'\xfc"\xd8@'
tRp937
ag7
(g9
S'\x14g\xfa@'
tRp938
ag7
(g9
S'B\xe4\x11A'
tRp939
ag7
(g9
S'J"\x1eA'
tRp940
ag7
(g9
S'R\xd05A'
tRp941
ag7
(g9
S'>2OA'
tRp942
ag7
(g9
S'\xb2\x1fjA'
tRp943
ag7
(g9
S'\xa5\x03\x83A'
tRp944
ag7
(g9
S'\xd3\x1b\x98A'
tRp945
ag7
(g9
S'i^\x9fA'
tRp946
ag7
(g9
S'}\x16\xb7A'
tRp947
ag7
(g9
S'\x85\x93\xbeA'
tRp948
ag7
(g9
S'\xcb\x97\xd5A'
tRp949
ag7
(g9
S'\xa7\xb7\xe2A'
tRp950
ag7
(g9
S'i@\xf0A'
tRp951
ag7
(g9
S't\xc8\x00B'
tRp952
ag7
(g9
S'\xe4Q\x06B'
tRp953
ag7
(g9
S'\xbaT\x0bB'
tRp954
ag7
(g9
S'\xe4\x8f\x0fB'
tRp955
ag7
(g9
S'\xf8;\x13B'
tRp956
ag7
(g9
S'\x10\x14\x17B'
tRp957
ag7
(g9
S'\x9e/\x19B'
tRp958
ag7
(g9
S'\xa2J\x1eB'
tRp959
ag7
(g9
S'\xfe}!B'
tRp960
ag7
(g9
S'\xcey$B'
tRp961
ag7
(g9
S"D`'B"
tRp962
ag7
(g9
S'\xbcq)B'
tRp963
ag7
(g9
S'\xf8\xbf*B'
tRp964
ag7
(g9
S'\x14e+B'
tRp965
ag7
(g9
S'\xa0@+B'
tRp966
ag7
(g9
S'j\xc0+B'
tRp967
ag7
(g9
S'\xe2\xaa+B'
tRp968
ag7
(g9
S'2\x0f,B'
tRp969
ag7
(g9
S'pK,B'
tRp970
ag7
(g9
S'\xca\xdc+B'
tRp971
ag7
(g9
S'\x1e\xcb*B'
tRp972
ag7
(g9
S'\xd0w*B'
tRp973
ag7
(g9
S"\xea\xe5'B"
tRp974
ag7
(g9
S'\xa6A#B'
tRp975
ag7
(g9
S'\xbeY!B'
tRp976
ag7
(g9
S'\xba\x16\x18B'
tRp977
ag7
(g9
S'\x9c\x98\x0fB'
tRp978
ag7
(g9
S'28\x05B'
tRp979
ag7
(g9
S'/u\xf3A'
tRp980
ag7
(g9
S'\xdb3\xe8A'
tRp981
ag7
(g9
S'\x0f\xa6\xc4A'
tRp982
ag7
(g9
S'\x05\xcb\xaeA'
tRp983
ag7
(g9
S'\xf1\x84\xa3A'
tRp984
ag7
(g9
S'\xc3\x12\x86A'
tRp985
ag7
(g9
S'\xc6b{A'
tRp986
ag7
(g9
S'>XKA'
tRp987
ag7
(g9
S'\xeaR2A'
tRp988
ag7
(g9
S'\xb6U\x1dA'
tRp989
ag7
(g9
S'z)\nA'
tRp990
ag7
(g9
S'\x0cc\xe8@'
tRp991
ag7
(g9
S'\xdc\xc5\xcd@'
tRp992
ag7
(g9
S'\x9cb\xb7@'
tRp993
ag7
(g9
S'\x9cE\xa5@'
tRp994
ag7
(g9
S'tS\x97@'
tRp995
asS'adc'
p996
(lp997
F1023
aF1023
aF1023
aF1023
aF1023
aF1023
aF1023
aF1023
aF1023
aF1023
aF1023
aF1023
aF1023
aF1023
aF1023
aF1023
aF1023
aF1023
aF1023
aF1023
aF1023
aF1023
aF1023
aF1023
aF1023
aF1023
aF1023
aF1023
aF1023
aF1023
aF1023
aF1023
aF1023
aF1023
aF1023
aF1023
aF1023
aF1023
aF1023
aF1006
aF948
aF912
aF861
aF805
aF775
aF746
aF733
aF706
aF686
aF666
aF625
aF592
aF590
aF555
aF545
aF531
aF518
aF512
aF497
aF483
aF469
aF461
aF455
aF450
aF448
aF448
aF458
aF451
aF459
aF463
aF464
aF459
aF458
aF463
aF474
aF492
aF508
aF529
aF566
aF603
aF646
aF686
aF707
aF746
aF815
aF830
aF875
aF902
aF932
aF956
aF971
aF988
aF1003
aF1012
aF1019
aF1023
aF1023
aF1023
aF1023
aF1023
aF1023
aF1023
aF1023
aF1023
aF1023
aF1023
aF1023
aF1023
aF1023
aF1023
aF1023
aF1023
aF1023
aF1023
aF1023
aF1023
aF1023
aF1023
aF1023
aF1023
aF1023
aF1023
aF1023
aF1023
aF987
aF939
aF889
aF832
aF780
aF734
aF707
aF669
aF643
aF615
aF591
aF570
aF550
aF532
aF516
aF498
aF488
aF487
aF475
aF461
aF452
aF447
aF436
aF431
aF424
aF419
aF415
aF410
aF408
aF407
aF407
aF406
aF407
aF408
aF409
aF411
aF423
aF432
aF446
aF464
aF486
aF510
aF556
aF610
aF683
aF761
aF815
aF886
aF935
aF987
aF1023
aF1023
aF1023
aF1023
aF1023
aF1023
aF1023
aF1023
aF1023
aF1023
aF1023
aF1023
aF1023
aF1023
aF1023
aF1023
aF1023
aF1023
aF1023
aF1023
aF1023
aF1023
aF1023
aF1023
aF1023
aF1023
aF1023
aF1023
aF1023
aF1023
aF1023
aF1023
aF1023
aF1023
aF955
aF896
aF839
aF770
aF734
aF688
aF649
aF598
aF566
aF549
aF524
aF504
aF493
aF470
aF455
aF446
aF434
aF423
aF414
aF429
aF412
aF407
aF405
aF405
aF407
aF413
aF415
aF416
aF424
aF428
aF432
aF442
aF452
aF465
aF483
aF506
aF535
aF585
aF608
aF677
aF734
aF758
aF830
aF892
aF961
aF1009
aF1023
aF1023
aF1023
aF1023
aF1023
aF1023
aF1023
aF1023
aF1023
aF1023
aF1023
aF1023
aF1023
aF1023
aF1023
aF1023
aF1023
aF1023
aF1023
aF1023
aF1023
aF1023
aF1023
aF1023
aF1023
aF1023
aF1023
aF1023
aF1023
aF1023
aF1023
aF1023
aF1023
aF1023
aF1023
aF1023
aF1023
aF1023
aF1023
aF1023
aF1023
aF994
aF957
aF915
aF869
aF838
aF809
aF772
aF738
aF710
aF690
aF668
aF646
aF625
aF611
aF600
aF589
aF581
aF570
aF554
aF539
aF529
aF513
aF498
aF487
aF477
aF472
aF468
aF463
aF459
aF455
aF453
aF450
aF447
aF443
aF442
aF437
aF437
aF447
aF433
aF433
aF435
aF436
aF438
aF444
aF451
aF461
aF475
aF488
aF509
aF534
aF572
aF594
aF626
aF669
aF722
aF779
aF834
aF892
aF931
aF967
aF990
aF1019
aF1023
aF1023
aF1023
aF1023
aF1023
aF1023
aF1023
aF1023
aF1023
aF1023
aF1023
aF1023
aF1023
aF1023
aF1023
aF1023
aF1023
aF1023
aF1023
aF1023
aF1023
aF1023
aF1023
aF1023
aF1023
aF1023
aF1023
aF1023
aF1023
aF1023
aF1023
aF1023
aF1023
aF1023
aF1023
aF1023
aF1023
aF1023
aF1023
aF1023
aF1023
aF1023
aF1023
aF1008
aF986
aF949
aF903
aF873
aF838
aF827
aF773
aF738
aF707
aF682
aF661
aF645
aF614
aF593
aF576
aF561
aF543
aF528
aF515
aF509
aF498
aF495
aF489
aF483
aF478
aF477
aF471
aF465
aF462
aF457
aF453
aF450
aF448
aF447
aF444
aF444
aF445
aF442
aF441
aF440
aF440
aF441
aF442
aF444
aF447
aF453
aF459
aF466
aF478
aF491
aF505
aF526
aF548
aF568
aF592
aF620
aF658
aF699
aF734
aF772
aF815
aF833
aF860
aF876
aF910
aF935
aF943
aF953
aF968
aF990
aF1000
aF1003
aF1003
aF1001
aF1001
aF999
aF999
aF998
aF999
aF998
aF998
aF996
aF995
aF995
aF994
aF994
aF993
aF993
aF993
aF991
aF991
aF991
aF991
aF991
aF990
aF990
aF989
aF988
aF988
aF987
aF981
aF977
aF974
aF966
aF953
aF934
aF895
aF844
aF800
aF754
aF714
aF681
aF651
aF632
aF612
aF582
aF566
aF548
aF536
aF524
aF508
aF496
aF481
aF472
aF463
aF453
aF448
aF444
aF440
aF436
aF435
aF459
aF443
aF441
aF439
aF435
aF434
aF418
aF417
aF416
aF422
aF427
aF425
aF424
aF425
aF426
aF427
aF430
aF428
aF434
aF439
aF447
aF464
aF481
aF504
aF527
aF566
aF602
aF642
aF679
aF723
aF755
aF785
aF800
aF824
aF857
aF882
aF906
aF925
aF935
aF943
aF945
aF956
aF955
aF953
aF952
aF950
aF950
aF947
aF946
aF945
aF944
aF943
aF943
aF942
aF942
aF941
aF940
aF940
aF939
aF938
aF938
aF938
aF937
aF937
aF936
aF936
aF933
aF932
aF930
aF926
aF922
aF920
aF912
aF907
aF897
aF876
aF857
aF819
aF763
aF718
aF676
aF647
aF626
aF603
aF581
aF568
aF554
aF540
aF530
aF517
aF503
aF492
aF480
aF467
aF464
aF461
aF449
aF445
aF440
aF437
aF433
aF433
aF433
aF437
aF436
aF438
aF437
aF436
aF434
aF434
aF434
aF434
aF431
aF436
aF436
aF438
aF439
aF443
aF452
aF462
aF471
aF481
aF494
aF523
aF548
aF584
aF623
aF661
aF702
aF739
aF780
aF816
aF846
aF856
aF887
aF919
aF939
aF946
aF950
aF950
aF951
aF952
aF952
aF954
aF952
aF949
aF948
aF947
aF946
aF944
aF943
aF940
aF940
aF951
aF953
aF958
aF964
aF976
aF984
aF997
aF995
aF992
aF990
aF988
aF987
aF987
aF986
aF984
aF978
aF975
aF974
aF971
aF967
aF961
aF950
aF934
aF909
aF851
aF790
aF744
aF704
aF666
aF627
aF597
aF579
aF566
aF549
aF543
aF537
aF505
aF487
aF482
aF469
aF459
aF449
aF443
aF440
aF440
aF436
aF434
aF435
aF435
aF431
aF429
aF432
aF428
aF425
aF425
aF427
aF425
aF424
aF429
aF432
aF431
aF428
aF431
aF426
aF428
aF431
aF434
aF439
aF446
aF459
aF472
aF507
aF539
aF577
aF625
aF681
aF739
aF801
aF845
aF874
aF931
aF940
aF940
aF947
aF946
aF944
aF944
aF944
aF942
aF941
aF939
aF937
aF937
aF936
aF936
aF936
aF934
aF933
aF933
aF941
aF955
aF950
aF948
aF946
aF944
aF944
aF943
aF943
aF943
aF942
aF941
aF941
aF940
aF940
aF939
aF939
aF938
aF937
aF934
aF933
aF932
aF930
aF926
aF921
aF917
aF909
aF900
aF886
aF867
aF839
aF801
aF761
aF700
aF661
aF623
aF594
aF580
aF558
aF546
aF527
aF519
aF504
aF496
aF482
aF483
aF468
aF459
aF456
aF446
aF448
aF436
aF434
aF433
aF437
aF424
aF425
aF419
aF415
aF412
aF411
aF410
aF409
aF409
aF410
aF410
aF409
aF408
aF408
aF407
aF407
aF410
aF410
aF410
aF417
aF416
aF418
aF430
aF444
aF462
aF487
aF496
aF543
aF586
aF631
aF668
aF715
aF735
aF783
aF826
aF857
aF873
aF883
aF884
aF888
aF888
aF885
aF885
aF888
aF887
aF887
aF885
aF884
aF881
aF880
aF880
aF879
aF879
aF878
aF877
aF877
aF876
aF875
aF876
aF875
aF874
aF872
aF873
aF872
aF872
aF872
aF871
aF871
aF871
aF870
aF870
aF870
aF869
aF869
aF868
aF867
aF866
aF864
aF859
aF855
aF852
aF846
aF837
aF825
aF809
aF784
aF752
aF713
aF677
aF637
aF601
aF575
aF538
aF524
aF499
aF483
aF469
aF457
aF448
aF440
aF433
aF426
aF420
aF416
aF414
aF411
aF409
aF407
aF409
aF408
aF407
aF404
aF404
aF402
aF399
aF398
aF394
aF396
aF398
aF396
aF396
aF396
aF397
aF398
aF400
aF399
aF402
aF402
aF416
aF430
aF449
aF460
aF493
aF526
aF553
aF584
aF614
aF645
aF664
aF697
aF724
aF747
aF773
aF800
aF819
aF830
aF837
as.