(dp1
S'pull_up'
p2
F470
sS'contact_area'
p3
F0.00040000000000000002
sS'adc_bias'
p4
F1023
sS'ft'
p5
(lp6
cnumpy.core.multiarray
scalar
p7
(cnumpy
dtype
p8
(S'f4'
I0
I1
tRp9
(I3
S'<'
NNNI-1
I-1
I0
tbS'\xc0So?'
tRp10
ag7
(g9
S'@1o?'
tRp11
ag7
(g9
S'\xc0\xe4p?'
tRp12
ag7
(g9
S'@ce?'
tRp13
ag7
(g9
S'\x00\x0e_?'
tRp14
ag7
(g9
S'\x00\x97o?'
tRp15
ag7
(g9
S'\x00Gk?'
tRp16
ag7
(g9
S'\x00{a?'
tRp17
ag7
(g9
S'\x80bl?'
tRp18
ag7
(g9
S'\x00\x11h?'
tRp19
ag7
(g9
S"\x00'n?"
tRp20
ag7
(g9
S"\x00'n?"
tRp21
ag7
(g9
S'\x80\xc3u?'
tRp22
ag7
(g9
S'@\xc0j?'
tRp23
ag7
(g9
S'\xc0*p?'
tRp24
ag7
(g9
S'\xc0*p?'
tRp25
ag7
(g9
S'@\xcd_?'
tRp26
ag7
(g9
S'\xc0\x17_?'
tRp27
ag7
(g9
S'\xc0fp?'
tRp28
ag7
(g9
S'\x80\xddj?'
tRp29
ag7
(g9
S'\x00gq?'
tRp30
ag7
(g9
S'\x80\x85r?'
tRp31
ag7
(g9
S'\xa0\xab\x80?'
tRp32
ag7
(g9
S'\x00\xc6\x91?'
tRp33
ag7
(g9
S'\xe0d\x9e?'
tRp34
ag7
(g9
S'\x007\xa1?'
tRp35
ag7
(g9
S'\xe0k\x9b?'
tRp36
ag7
(g9
S'@s\x9d?'
tRp37
ag7
(g9
S'@\xc6\xa7?'
tRp38
ag7
(g9
S'\xa0\xcb\xa8?'
tRp39
ag7
(g9
S'\x00A\xb8?'
tRp40
ag7
(g9
S'\xe0\xf7\x02@'
tRp41
ag7
(g9
S'\xc0\xbd\x0f@'
tRp42
ag7
(g9
S'\x0053@'
tRp43
ag7
(g9
S'0Ub@'
tRp44
ag7
(g9
S'\x18t\x8d@'
tRp45
ag7
(g9
S' \xd9\xac@'
tRp46
ag7
(g9
S'\x88\xbb\xe6@'
tRp47
ag7
(g9
S'\x98\x16\x0bA'
tRp48
ag7
(g9
S'd\xda"A'
tRp49
ag7
(g9
S'\xdc\xba9A'
tRp50
ag7
(g9
S'8\xecEA'
tRp51
ag7
(g9
S'\xc0z[A'
tRp52
ag7
(g9
S'\x08\xd3\x7fA'
tRp53
ag7
(g9
S'6\x90\x85A'
tRp54
ag7
(g9
S'n\n\x98A'
tRp55
ag7
(g9
S'\n\x12\xa4A'
tRp56
ag7
(g9
S'\x86\xb5\xaaA'
tRp57
ag7
(g9
S'\xd4\x10\xbfA'
tRp58
ag7
(g9
S'\xa4\x18\xc5A'
tRp59
ag7
(g9
S'\xf0k\xe1A'
tRp60
ag7
(g9
S'\xe2Y\xf0A'
tRp61
ag7
(g9
S'ZB\xf7A'
tRp62
ag7
(g9
S'\x01\x90\x05B'
tRp63
ag7
(g9
S'\x01\x90\x05B'
tRp64
ag7
(g9
S'w\x1b\x0fB'
tRp65
ag7
(g9
S'\xbb\x80\x17B'
tRp66
ag7
(g9
S'\xa3\xce\x19B'
tRp67
ag7
(g9
S'\x11\xe6 B'
tRp68
ag7
(g9
S'\xa31#B'
tRp69
ag7
(g9
S'\xd1`&B'
tRp70
ag7
(g9
S'W\xe7)B'
tRp71
ag7
(g9
S'\xdf\xcb*B'
tRp72
ag7
(g9
S'\x0b\x89*B'
tRp73
ag7
(g9
S'\xbdj)B'
tRp74
ag7
(g9
S"E`'B"
tRp75
ag7
(g9
S'\xd1\xaa#B'
tRp76
ag7
(g9
S'!\x9c\x1eB'
tRp77
ag7
(g9
S'\xdbv\x18B'
tRp78
ag7
(g9
S'\xfdg\x11B'
tRp79
ag7
(g9
S'\xa9R\tB'
tRp80
ag7
(g9
S'1"\x00B'
tRp81
ag7
(g9
S'^\xaf\xebA'
tRp82
ag7
(g9
S'\xbcW\xd3A'
tRp83
ag7
(g9
S't#\xbcA'
tRp84
ag7
(g9
S'L<\xa5A'
tRp85
ag7
(g9
S'\xc2\xbf\x8fA'
tRp86
ag7
(g9
S'\x10nwA'
tRp87
ag7
(g9
S'\\\xc0QA'
tRp88
ag7
(g9
S'\xd8\xfa/A'
tRp89
ag7
(g9
S'd_\x12A'
tRp90
ag7
(g9
S'\xc8\x88\xf2@'
tRp91
ag7
(g9
S'\xc8\xa5\xc9@'
tRp92
ag7
(g9
S'\xe0/\xaa@'
tRp93
ag7
(g9
S'`?\x8d@'
tRp94
ag7
(g9
S'\xa0Fb@'
tRp95
ag7
(g9
S'@\xd9&@'
tRp96
ag7
(g9
S'p\x1e\x1a@'
tRp97
ag7
(g9
S'\x80\x1f\xed?'
tRp98
ag7
(g9
S'\xc0\x01\xc6?'
tRp99
ag7
(g9
S' \xbd\xb0?'
tRp100
ag7
(g9
S'\xe0<\xad?'
tRp101
ag7
(g9
S'`]\xa0?'
tRp102
ag7
(g9
S'\xe0\x99\x94?'
tRp103
ag7
(g9
S'@\x1d\x91?'
tRp104
ag7
(g9
S'\xa0C\x90?'
tRp105
ag7
(g9
S'@\xa6\x8a?'
tRp106
ag7
(g9
S'\xc09\x87?'
tRp107
ag7
(g9
S'\xc0\x97|?'
tRp108
ag7
(g9
S'\x00bs?'
tRp109
ag7
(g9
S'\x00\\o?'
tRp110
ag7
(g9
S'\x80\x0cy?'
tRp111
ag7
(g9
S' >\x81?'
tRp112
ag7
(g9
S'\x80Y\x86?'
tRp113
ag7
(g9
S'`b\x80?'
tRp114
ag7
(g9
S'\x80\x1e\x80?'
tRp115
ag7
(g9
S'@\xc6\x90?'
tRp116
ag7
(g9
S'`\xe1\xbd?'
tRp117
ag7
(g9
S'\xe0/\xdd?'
tRp118
ag7
(g9
S'\xa0Q\xf1?'
tRp119
ag7
(g9
S'pS\x12@'
tRp120
ag7
(g9
S'\x80\x910@'
tRp121
ag7
(g9
S'\x10\xeaU@'
tRp122
ag7
(g9
S'\x90?\x84@'
tRp123
ag7
(g9
S'\x10[\xaf@'
tRp124
ag7
(g9
S'x\xc5\xf0@'
tRp125
ag7
(g9
S' \xff\nA'
tRp126
ag7
(g9
S'\x0c\xd4HA'
tRp127
ag7
(g9
S'\x98EnA'
tRp128
ag7
(g9
S'\x06\xe4\x89A'
tRp129
ag7
(g9
S'\x96\x8a\x9cA'
tRp130
ag7
(g9
S'\xaao\xaeA'
tRp131
ag7
(g9
S'\xdc\xe7\xbfA'
tRp132
ag7
(g9
S'\xda\xdf\xd1A'
tRp133
ag7
(g9
S'\xdcD\xdbA'
tRp134
ag7
(g9
S'<\xf3\xf4A'
tRp135
ag7
(g9
S'\r\x8f\x02B'
tRp136
ag7
(g9
S'\x97\xb4\tB'
tRp137
ag7
(g9
S'c\xf0\x0cB'
tRp138
ag7
(g9
S"'\xa1\x15B"
tRp139
ag7
(g9
S'\x8f\xeb\x1aB'
tRp140
ag7
(g9
S'\xe3\xc3\x1fB'
tRp141
ag7
(g9
S'\x97\xd3#B'
tRp142
ag7
(g9
S'm\xd4&B'
tRp143
ag7
(g9
S'-\xe1(B'
tRp144
ag7
(g9
S'\xd33*B'
tRp145
ag7
(g9
S"\x97'*B"
tRp146
ag7
(g9
S'\x03\x10*B'
tRp147
ag7
(g9
S'\xad6(B'
tRp148
ag7
(g9
S'3\xe5&B'
tRp149
ag7
(g9
S'\xa5\xb1#B'
tRp150
ag7
(g9
S'\xd1\xaf\x1dB'
tRp151
ag7
(g9
S'k]\x1bB'
tRp152
ag7
(g9
S'}\xf5\x12B'
tRp153
ag7
(g9
S'9i\x0cB'
tRp154
ag7
(g9
S'-Y\x04B'
tRp155
ag7
(g9
S'`\xb8\xf5A'
tRp156
ag7
(g9
S'\xd0\x19\xe0A'
tRp157
ag7
(g9
S'\xac\xe5\xc9A'
tRp158
ag7
(g9
S'\xdcB\xbeA'
tRp159
ag7
(g9
S'\x08\xc8\x8eA'
tRp160
ag7
(g9
S'\xcc\roA'
tRp161
ag7
(g9
S',qFA'
tRp162
ag7
(g9
S'\xc4\x94$A'
tRp163
ag7
(g9
S'X\xd8\x06A'
tRp164
ag7
(g9
S'\xb0[\xda@'
tRp165
ag7
(g9
S'\xd8]\xae@'
tRp166
ag7
(g9
S' y\x8c@'
tRp167
ag7
(g9
S'@\xf9d@'
tRp168
ag7
(g9
S'P.<@'
tRp169
ag7
(g9
S'\xf0m!@'
tRp170
ag7
(g9
S'pF\x10@'
tRp171
ag7
(g9
S'`\xda\x04@'
tRp172
ag7
(g9
S'@\xa1\xf5?'
tRp173
ag7
(g9
S'\xc0j\xe2?'
tRp174
ag7
(g9
S'\xa0e\xd8?'
tRp175
ag7
(g9
S'\xe0u\xd3?'
tRp176
ag7
(g9
S'`V\xd4?'
tRp177
ag7
(g9
S'`w\xd2?'
tRp178
ag7
(g9
S'@\xd1\xc8?'
tRp179
ag7
(g9
S'\xc0\x80\xc5?'
tRp180
ag7
(g9
S'\x00\xe0\xbf?'
tRp181
ag7
(g9
S'\xc0\x96\xc3?'
tRp182
ag7
(g9
S' \xc7\xc7?'
tRp183
ag7
(g9
S'@\x0e\xc3?'
tRp184
ag7
(g9
S'\x80d\xbd?'
tRp185
ag7
(g9
S'\xa0^\xbb?'
tRp186
ag7
(g9
S'@\xf4\xc3?'
tRp187
ag7
(g9
S'\xa0\xc3\xe9?'
tRp188
ag7
(g9
S'\x802\t@'
tRp189
ag7
(g9
S'\xf0\n\x13@'
tRp190
ag7
(g9
S'p\xb4 @'
tRp191
ag7
(g9
S'\x00\xf1&@'
tRp192
ag7
(g9
S'`\xa1N@'
tRp193
ag7
(g9
S'P\xefz@'
tRp194
ag7
(g9
S'xw\x9a@'
tRp195
ag7
(g9
S'8\x1a\xbd@'
tRp196
ag7
(g9
S'\x10\x0f\xe2@'
tRp197
ag7
(g9
S'\xe0\x15\nA'
tRp198
ag7
(g9
S"\x1c/'A"
tRp199
ag7
(g9
S'P\xceEA'
tRp200
ag7
(g9
S'\xa4DgA'
tRp201
ag7
(g9
S'\xa2\x95\x85A'
tRp202
ag7
(g9
S'\x1c\x8c\x98A'
tRp203
ag7
(g9
S'\xb0\xe1\xb7A'
tRp204
ag7
(g9
S'\x8a\xe5\xccA'
tRp205
ag7
(g9
S'tZ\xd7A'
tRp206
ag7
(g9
S'\xa6v\xf5A'
tRp207
ag7
(g9
S'\xc7\xea\x04B'
tRp208
ag7
(g9
S'\xd9\x90\x0eB'
tRp209
ag7
(g9
S'=?\x17B'
tRp210
ag7
(g9
S'\xc7H\x1fB'
tRp211
ag7
(g9
S'E\xf1&B'
tRp212
ag7
(g9
S'\x1d\x8e.B'
tRp213
ag7
(g9
S'\x9bY5B'
tRp214
ag7
(g9
S'\xc3u;B'
tRp215
ag7
(g9
S'\xf3\xb3@B'
tRp216
ag7
(g9
S'\xc1rDB'
tRp217
ag7
(g9
S'7|FB'
tRp218
ag7
(g9
S'\x01\xcdFB'
tRp219
ag7
(g9
S'\x17\xd3CB'
tRp220
ag7
(g9
S'\xc1\x9d?B'
tRp221
ag7
(g9
S']~9B'
tRp222
ag7
(g9
S'\xa7t1B'
tRp223
ag7
(g9
S'\x83\xfd(B'
tRp224
ag7
(g9
S'w\xc8 B'
tRp225
ag7
(g9
S'\xf7\xcd\x18B'
tRp226
ag7
(g9
S'\x1d\x81\x11B'
tRp227
ag7
(g9
S'\xef\xc1\nB'
tRp228
ag7
(g9
S'\x0b\xfc\x04B'
tRp229
ag7
(g9
S'28\xffA'
tRp230
ag7
(g9
S'8\x81\xf4A'
tRp231
ag7
(g9
S't\xad\xe8A'
tRp232
ag7
(g9
S'b>\xdaA'
tRp233
ag7
(g9
S'\x18\x1e\xbeA'
tRp234
ag7
(g9
S'\xee\x04\xa8A'
tRp235
ag7
(g9
S'H\xaf\x91A'
tRp236
ag7
(g9
S'pcyA'
tRp237
ag7
(g9
S'h@QA'
tRp238
ag7
(g9
S'@y+A'
tRp239
ag7
(g9
S'\xe4\xc9\nA'
tRp240
ag7
(g9
S'\x98q\xde@'
tRp241
ag7
(g9
S'\xf0\xb3\xb1@'
tRp242
ag7
(g9
S'@\x9c\x8d@'
tRp243
ag7
(g9
S'\xa0\xa4`@'
tRp244
ag7
(g9
S'\xa0n(@'
tRp245
ag7
(g9
S'\xa0\x84\x0c@'
tRp246
ag7
(g9
S'`\xc9\xf2?'
tRp247
ag7
(g9
S'@\xfe\xea?'
tRp248
ag7
(g9
S' \xd8\xcf?'
tRp249
ag7
(g9
S'\xa0n\xb9?'
tRp250
ag7
(g9
S'\x80O\xab?'
tRp251
ag7
(g9
S'@\xd0\xa0?'
tRp252
ag7
(g9
S'\xc0\xaf\x99?'
tRp253
ag7
(g9
S'\x00\x81\x98?'
tRp254
ag7
(g9
S'@\x92\x9a?'
tRp255
ag7
(g9
S'`,\x98?'
tRp256
ag7
(g9
S'\x80G\x90?'
tRp257
ag7
(g9
S'\xa0\xd4\x8d?'
tRp258
ag7
(g9
S'\x80\xcb\x8d?'
tRp259
ag7
(g9
S'\xe0y\x92?'
tRp260
ag7
(g9
S'`\xe9\x95?'
tRp261
ag7
(g9
S'@.\x8e?'
tRp262
ag7
(g9
S'\xe0`\xa3?'
tRp263
ag7
(g9
S'\xa0\xd8\xc3?'
tRp264
ag7
(g9
S'\x00@\xde?'
tRp265
ag7
(g9
S'\x80S\xee?'
tRp266
ag7
(g9
S'\xf0\xcd\x02@'
tRp267
ag7
(g9
S'p\x00\x19@'
tRp268
ag7
(g9
S'P\xc36@'
tRp269
ag7
(g9
S'\xe0\xc1E@'
tRp270
ag7
(g9
S'\xf0Bq@'
tRp271
ag7
(g9
S'p\x83\xa5@'
tRp272
ag7
(g9
S'\xa0-\xd0@'
tRp273
ag7
(g9
S'\x88\xa3\xff@'
tRp274
ag7
(g9
S'<\xf2\x16A'
tRp275
ag7
(g9
S'\x98\xaf,A'
tRp276
ag7
(g9
S'\xb4\x82?A'
tRp277
ag7
(g9
S'L\x8fPA'
tRp278
ag7
(g9
S'\xa0\x96bA'
tRp279
ag7
(g9
S'xQvA'
tRp280
ag7
(g9
S'\xb0\xf6\x85A'
tRp281
ag7
(g9
S'$\xd6\x91A'
tRp282
ag7
(g9
S'\x1e\xc6\x9eA'
tRp283
ag7
(g9
S'6\xec\xabA'
tRp284
ag7
(g9
S'\x92\xa6\xb8A'
tRp285
ag7
(g9
S'\x98\xbe\xc4A'
tRp286
ag7
(g9
S'\x06\xcd\xd8A'
tRp287
ag7
(g9
S'J\x9d\xdeA'
tRp288
ag7
(g9
S'X\x03\xf0A'
tRp289
ag7
(g9
S'\xe0p\xf6A'
tRp290
ag7
(g9
S']\x1c\x01B'
tRp291
ag7
(g9
S'?\xf4\x06B'
tRp292
ag7
(g9
S'\xed\x04\x0cB'
tRp293
ag7
(g9
S'\x03\t\x11B'
tRp294
ag7
(g9
S'\x0b\x17\x17B'
tRp295
ag7
(g9
S'a\xa9\x1aB'
tRp296
ag7
(g9
S'\xc5\xa8\x1dB'
tRp297
ag7
(g9
S'\x85\xa1\x1fB'
tRp298
ag7
(g9
S'\x95\xba B'
tRp299
ag7
(g9
S'\xe1g!B'
tRp300
ag7
(g9
S'\xfb\xa7!B'
tRp301
ag7
(g9
S'\x9f*!B'
tRp302
ag7
(g9
S'UX B'
tRp303
ag7
(g9
S'\xf5\xd0\x1eB'
tRp304
ag7
(g9
S'=\x93\x1cB'
tRp305
ag7
(g9
S'\xe5y\x19B'
tRp306
ag7
(g9
S'/[\x15B'
tRp307
ag7
(g9
S'5x\rB'
tRp308
ag7
(g9
S'E\xde\x06B'
tRp309
ag7
(g9
S'\xee\xe7\xfcA'
tRp310
ag7
(g9
S'p\x1b\xe8A'
tRp311
ag7
(g9
S'r\xf5\xd0A'
tRp312
ag7
(g9
S'\x9a\x91\xb8A'
tRp313
ag7
(g9
S'<=\xa0A'
tRp314
ag7
(g9
S'\xcc\x12\x88A'
tRp315
ag7
(g9
S'\x0c]bA'
tRp316
ag7
(g9
S'8\x887A'
tRp317
ag7
(g9
S'X\x86\x12A'
tRp318
ag7
(g9
S'X\x08\xea@'
tRp319
ag7
(g9
S'X\x99\xbb@'
tRp320
ag7
(g9
S'\x08\xda\x97@'
tRp321
ag7
(g9
S'p\x97u@'
tRp322
ag7
(g9
S'\xd0aK@'
tRp323
ag7
(g9
S'\xd0\x12+@'
tRp324
ag7
(g9
S'\x802\x18@'
tRp325
ag7
(g9
S' \x82\x0b@'
tRp326
ag7
(g9
S'@\xfc\xfc?'
tRp327
ag7
(g9
S'\xe0D\xec?'
tRp328
ag7
(g9
S'\xa0\x8e\xdf?'
tRp329
ag7
(g9
S'\x00\xa0\xd6?'
tRp330
ag7
(g9
S'\xc0\xc6\xc8?'
tRp331
ag7
(g9
S'\x00\xe8\xc3?'
tRp332
ag7
(g9
S'@\x9c\xc5?'
tRp333
ag7
(g9
S'\xc0\r\xc9?'
tRp334
ag7
(g9
S'@\xe7\xc3?'
tRp335
ag7
(g9
S'@\xb0\xc4?'
tRp336
ag7
(g9
S'\xc0\x9e\xc5?'
tRp337
ag7
(g9
S'\xa0\x02\xc8?'
tRp338
ag7
(g9
S'\xc0=\xcb?'
tRp339
ag7
(g9
S'`\x8f\xc6?'
tRp340
ag7
(g9
S'\xa0;\xc6?'
tRp341
ag7
(g9
S'@j\xcb?'
tRp342
ag7
(g9
S'\xa0\x0f\xcf?'
tRp343
ag7
(g9
S' q\xca?'
tRp344
ag7
(g9
S'@\t\xcb?'
tRp345
ag7
(g9
S'\x00p\xc6?'
tRp346
ag7
(g9
S'\xc0\x0f\xc6?'
tRp347
ag7
(g9
S' h\xc9?'
tRp348
ag7
(g9
S'\xc0(\xcf?'
tRp349
ag7
(g9
S'@\xd1\xd0?'
tRp350
ag7
(g9
S'\xa0~\xcf?'
tRp351
ag7
(g9
S'\xe04\xd8?'
tRp352
ag7
(g9
S'`\x1d\xdb?'
tRp353
ag7
(g9
S'\xc0N\xfd?'
tRp354
ag7
(g9
S'\xf0\x8c\x08@'
tRp355
ag7
(g9
S'\x90\xe1\x13@'
tRp356
ag7
(g9
S" \xb2'@"
tRp357
ag7
(g9
S'\x90\xf9]@'
tRp358
ag7
(g9
S'X=\x8b@'
tRp359
ag7
(g9
S'\xc0\x07\xae@'
tRp360
ag7
(g9
S'x$\xc3@'
tRp361
ag7
(g9
S'\xac\x08\x07A'
tRp362
ag7
(g9
S'<x A'
tRp363
ag7
(g9
S'p\xe77A'
tRp364
ag7
(g9
S'p\xe0OA'
tRp365
ag7
(g9
S'\x00\x8fiA'
tRp366
ag7
(g9
S'\x9e\xa9\x82A'
tRp367
ag7
(g9
S'\xc6\x8d\x91A'
tRp368
ag7
(g9
S'\xdeG\xa8A'
tRp369
ag7
(g9
S'<\xbf\xafA'
tRp370
ag7
(g9
S'\xdc\x97\xbfA'
tRp371
ag7
(g9
S'\xb6o\xcfA'
tRp372
ag7
(g9
S'Pl\xdeA'
tRp373
ag7
(g9
S'j\x04\xf4A'
tRp374
ag7
(g9
S'"\xf3\xfaA'
tRp375
ag7
(g9
S'\xcd@\x04B'
tRp376
ag7
(g9
S'w\x98\nB'
tRp377
ag7
(g9
S'\xa7\xc1\x10B'
tRp378
ag7
(g9
S'[Z\x16B'
tRp379
ag7
(g9
S'I\xce\x1aB'
tRp380
ag7
(g9
S'5\xc3\x1fB'
tRp381
ag7
(g9
S'\x17\xa8!B'
tRp382
ag7
(g9
S'\xe7\xec"B'
tRp383
ag7
(g9
S'm\xa9#B'
tRp384
ag7
(g9
S'\x13{#B'
tRp385
ag7
(g9
S'?y!B'
tRp386
ag7
(g9
S'w\xbf\x1fB'
tRp387
ag7
(g9
S'3\x13\x1dB'
tRp388
ag7
(g9
S'i\xc6\x18B'
tRp389
ag7
(g9
S'\x971\x16B'
tRp390
ag7
(g9
S'1\xfe\x0bB'
tRp391
ag7
(g9
S'\x15\xea\x02B'
tRp392
ag7
(g9
S'8\x9f\xefA'
tRp393
ag7
(g9
S't\x8e\xd7A'
tRp394
ag7
(g9
S'\x1c\xfc\xbdA'
tRp395
ag7
(g9
S'\x067\xa6A'
tRp396
ag7
(g9
S'\x90~\x9bA'
tRp397
ag7
(g9
S'4l\x86A'
tRp398
ag7
(g9
S'(ihA'
tRp399
ag7
(g9
S'\x84\x82FA'
tRp400
ag7
(g9
S'\xfc{\x18A'
tRp401
ag7
(g9
S'\x0c\xad\x00A'
tRp402
ag7
(g9
S'\x98T\xdb@'
tRp403
ag7
(g9
S'x\xa1\xba@'
tRp404
ag7
(g9
S'\xf8\xbf\x9f@'
tRp405
ag7
(g9
S'\xc8r\x8c@'
tRp406
ag7
(g9
S'\x80X}@'
tRp407
ag7
(g9
S'\xb0\xd8k@'
tRp408
ag7
(g9
S'\x90\x0c^@'
tRp409
ag7
(g9
S'p?P@'
tRp410
ag7
(g9
S'\xe0/F@'
tRp411
ag7
(g9
S'\xc0\n?@'
tRp412
ag7
(g9
S'\x10">@'
tRp413
ag7
(g9
S'\xe0l>@'
tRp414
ag7
(g9
S'`T;@'
tRp415
ag7
(g9
S'\xc0i:@'
tRp416
ag7
(g9
S'\x00"<@'
tRp417
ag7
(g9
S'\xa0\x1e6@'
tRp418
ag7
(g9
S' \xe55@'
tRp419
ag7
(g9
S'`\x0e6@'
tRp420
ag7
(g9
S'\x80);@'
tRp421
ag7
(g9
S' :=@'
tRp422
ag7
(g9
S'\x90;:@'
tRp423
ag7
(g9
S'\x10\x8b8@'
tRp424
ag7
(g9
S'@\x1a:@'
tRp425
ag7
(g9
S'\xe0\xaa7@'
tRp426
ag7
(g9
S'0\t;@'
tRp427
ag7
(g9
S'\xf0T<@'
tRp428
ag7
(g9
S'\xb0\xca=@'
tRp429
ag7
(g9
S'\x00\xc2=@'
tRp430
ag7
(g9
S'\x00\xc2=@'
tRp431
ag7
(g9
S'\xb0U<@'
tRp432
ag7
(g9
S'\x10l9@'
tRp433
ag7
(g9
S'0\xac;@'
tRp434
ag7
(g9
S'\xf0\x0c=@'
tRp435
ag7
(g9
S'\xd0\r:@'
tRp436
ag7
(g9
S'P3:@'
tRp437
ag7
(g9
S'\x80\x046@'
tRp438
ag7
(g9
S'\xf0\x0f9@'
tRp439
ag7
(g9
S'P\xdfA@'
tRp440
ag7
(g9
S'\x90\x12G@'
tRp441
ag7
(g9
S'\xc0\xa6I@'
tRp442
ag7
(g9
S'0\xaaK@'
tRp443
ag7
(g9
S'\xf0FP@'
tRp444
ag7
(g9
S'\xf0\xba^@'
tRp445
ag7
(g9
S'\xe0\x06p@'
tRp446
ag7
(g9
S'\xb8\x03\x81@'
tRp447
ag7
(g9
S'\x98x\x9a@'
tRp448
ag7
(g9
S'p\xb1\xb3@'
tRp449
ag7
(g9
S'@o\xd5@'
tRp450
ag7
(g9
S'p\xc0\xfc@'
tRp451
ag7
(g9
S'T\xb2\x08A'
tRp452
ag7
(g9
S'@_-A'
tRp453
ag7
(g9
S'P\xf7GA'
tRp454
ag7
(g9
S'\x10\x83dA'
tRp455
ag7
(g9
S'VD\x81A'
tRp456
ag7
(g9
S'h\xfd\x8fA'
tRp457
ag7
(g9
S'\xfaz\x97A'
tRp458
ag7
(g9
S'\xbc\xd6\xa8A'
tRp459
ag7
(g9
S'\xc8\x9c\xc0A'
tRp460
ag7
(g9
S'\xfa\x07\xcfA'
tRp461
ag7
(g9
S'\x9e\xc4\xdcA'
tRp462
ag7
(g9
S'\xa4\x08\xf0A'
tRp463
ag7
(g9
S'\xa4\x08\xf0A'
tRp464
ag7
(g9
S'\xb9|\x01B'
tRp465
ag7
(g9
S'5\x05\nB'
tRp466
ag7
(g9
S'\xf5l\x0cB'
tRp467
ag7
(g9
S'\x1d^\x14B'
tRp468
ag7
(g9
S'\xfd3\x17B'
tRp469
ag7
(g9
S'\xa3\xc6\x1bB'
tRp470
ag7
(g9
S'\xd9\xb5\x1fB'
tRp471
ag7
(g9
S'O\xfd"B'
tRp472
ag7
(g9
S'\x1b\xd3%B'
tRp473
ag7
(g9
S'\xf7-(B'
tRp474
ag7
(g9
S';A)B'
tRp475
ag7
(g9
S'7\xdb)B'
tRp476
ag7
(g9
S'q\xa4)B'
tRp477
ag7
(g9
S'\x8f\x1b)B'
tRp478
ag7
(g9
S"A\xab'B"
tRp479
ag7
(g9
S'e\xb7#B'
tRp480
ag7
(g9
S'9p\x1fB'
tRp481
ag7
(g9
S'\x13^\x1cB'
tRp482
ag7
(g9
S'{/\x11B'
tRp483
ag7
(g9
S'}\x07\x08B'
tRp484
ag7
(g9
S'\xe6\xa3\xfaA'
tRp485
ag7
(g9
S'\xc8\x9e\xe2A'
tRp486
ag7
(g9
S'\xc2\xaa\xc8A'
tRp487
ag7
(g9
S'\xb6C\xadA'
tRp488
ag7
(g9
S'\xec3\x86A'
tRp489
ag7
(g9
S'\xc8\x19_A'
tRp490
ag7
(g9
S'8\xc77A'
tRp491
ag7
(g9
S'\x9c\x16\x17A'
tRp492
ag7
(g9
S'h\xeb\xf7@'
tRp493
ag7
(g9
S'\x10\x8e\xca@'
tRp494
ag7
(g9
S'@\xda\xb5@'
tRp495
ag7
(g9
S'\x08\xde\x96@'
tRp496
ag7
(g9
S'\x00\xdde@'
tRp497
ag7
(g9
S'\xf0nG@'
tRp498
ag7
(g9
S'\xb0\xbd4@'
tRp499
ag7
(g9
S'\xc0E&@'
tRp500
ag7
(g9
S'\x90\x93\x16@'
tRp501
ag7
(g9
S'\xd0q\x0c@'
tRp502
ag7
(g9
S'pF\x05@'
tRp503
ag7
(g9
S' #\x04@'
tRp504
ag7
(g9
S'\xb0G\x02@'
tRp505
ag7
(g9
S'\xc0\x87\xfe?'
tRp506
ag7
(g9
S'\x00\xb8\xf5?'
tRp507
ag7
(g9
S'\xe0\xc8\xee?'
tRp508
ag7
(g9
S'`\xcb\xf0?'
tRp509
ag7
(g9
S'\x80z\xea?'
tRp510
ag7
(g9
S'@C\xf4?'
tRp511
ag7
(g9
S'\xc0\xeb\xef?'
tRp512
ag7
(g9
S'\xa0\x11\xf8?'
tRp513
ag7
(g9
S'@l\xf3?'
tRp514
ag7
(g9
S'`\xb0\xf1?'
tRp515
ag7
(g9
S'\xc0\xc6\xf0?'
tRp516
ag7
(g9
S'\x80\xeb\xf2?'
tRp517
ag7
(g9
S'`\xc6\xf0?'
tRp518
ag7
(g9
S'\x80\xbc\xf7?'
tRp519
ag7
(g9
S'\x00\xb4\xf6?'
tRp520
ag7
(g9
S'\xe0X\xf4?'
tRp521
ag7
(g9
S'\x00\x87\xf7?'
tRp522
ag7
(g9
S'\xa0\xd7\xf6?'
tRp523
ag7
(g9
S'`>\xf7?'
tRp524
ag7
(g9
S'\xa0\xc5\x03@'
tRp525
ag7
(g9
S'\xd0\xd0"@'
tRp526
ag7
(g9
S'\xb0\xb6#@'
tRp527
ag7
(g9
S'\xe0\x8f"@'
tRp528
ag7
(g9
S'\xc0\x8c)@'
tRp529
ag7
(g9
S' R7@'
tRp530
ag7
(g9
S'\xc0\xe2J@'
tRp531
ag7
(g9
S'\xa01`@'
tRp532
ag7
(g9
S'\xa05\x86@'
tRp533
ag7
(g9
S'\xb0\\\xa6@'
tRp534
ag7
(g9
S'\x90\x14\xce@'
tRp535
ag7
(g9
S'\xd8\x9c\xf7@'
tRp536
ag7
(g9
S'8\x0b\x11A'
tRp537
ag7
(g9
S'\xfc2(A'
tRp538
ag7
(g9
S'\\\xf9>A'
tRp539
ag7
(g9
S'\xf8[VA'
tRp540
ag7
(g9
S'\xccHkA'
tRp541
ag7
(g9
S'\x08\xf7\x7fA'
tRp542
ag7
(g9
S'(k\x8aA'
tRp543
ag7
(g9
S't\x8b\x96A'
tRp544
ag7
(g9
S'@\xe8\xa3A'
tRp545
ag7
(g9
S'\x0e\x91\xb6A'
tRp546
ag7
(g9
S'\xcc7\xbdA'
tRp547
ag7
(g9
S'\xea\xd1\xc8A'
tRp548
ag7
(g9
S'\xdc\xfb\xd4A'
tRp549
ag7
(g9
S'\x88\xc3\xe1A'
tRp550
ag7
(g9
S'N\xc0\xedA'
tRp551
ag7
(g9
S'\xb6B\xf8A'
tRp552
ag7
(g9
S'\xdb\xa9\x02B'
tRp553
ag7
(g9
S'\xed\x98\x04B'
tRp554
ag7
(g9
S'c%\x08B'
tRp555
ag7
(g9
S'\xc1\xac\x0bB'
tRp556
ag7
(g9
S'\x8f\xca\x0cB'
tRp557
ag7
(g9
S'\xd9\x04\x0eB'
tRp558
ag7
(g9
S'\xa3\x82\x0fB'
tRp559
ag7
(g9
S'\x85\xc8\x0fB'
tRp560
ag7
(g9
S'+\xf7\x10B'
tRp561
ag7
(g9
S'#\xd8\x10B'
tRp562
ag7
(g9
S'G$\x10B'
tRp563
ag7
(g9
S'\x17\xdc\x0fB'
tRp564
ag7
(g9
S'\xdb;\x0eB'
tRp565
ag7
(g9
S'5q\rB'
tRp566
ag7
(g9
S'q\xf4\nB'
tRp567
ag7
(g9
S'\xfd@\x07B'
tRp568
ag7
(g9
S'\x98+\xffA'
tRp569
ag7
(g9
S'$\xce\xefA'
tRp570
ag7
(g9
S'\x04\x05\xe7A'
tRp571
ag7
(g9
S'\x14\x1c\xc6A'
tRp572
ag7
(g9
S'\xbe\xcb\xadA'
tRp573
ag7
(g9
S'.\xc1\xa1A'
tRp574
ag7
(g9
S'\xd4\x02\x81A'
tRp575
ag7
(g9
S'`\x02\\A'
tRp576
ag7
(g9
S'p\xfa9A'
tRp577
ag7
(g9
S'T\xb7\x1bA'
tRp578
ag7
(g9
S'\x00\xbe\xff@'
tRp579
ag7
(g9
S'\x909\xd1@'
tRp580
ag7
(g9
S'`K\xa9@'
tRp581
ag7
(g9
S'h\x10\x8d@'
tRp582
ag7
(g9
S'\xb0\xa3m@'
tRp583
ag7
(g9
S'\x80\xc7H@'
tRp584
ag7
(g9
S'0i/@'
tRp585
ag7
(g9
S'@p\x1d@'
tRp586
ag7
(g9
S'\xd0\x87\x13@'
tRp587
ag7
(g9
S'0\x1a\x0c@'
tRp588
ag7
(g9
S'\xf0\xcb\x03@'
tRp589
ag7
(g9
S'\xa0c\xf8?'
tRp590
ag7
(g9
S'\xc0\x06\xf3?'
tRp591
ag7
(g9
S'\x00q\xf3?'
tRp592
ag7
(g9
S'\xc0!\xf1?'
tRp593
ag7
(g9
S'\xe00\xf8?'
tRp594
ag7
(g9
S'\x00\xeb\xf1?'
tRp595
ag7
(g9
S'\xe0H\xf2?'
tRp596
ag7
(g9
S' \x86\xea?'
tRp597
ag7
(g9
S'\xc0X\xea?'
tRp598
ag7
(g9
S'`\x80\xe9?'
tRp599
ag7
(g9
S'\xe0\x02\xf1?'
tRp600
ag7
(g9
S'\xe0l\xeb?'
tRp601
ag7
(g9
S'\x00@\xe8?'
tRp602
ag7
(g9
S'\xa0g\xe0?'
tRp603
ag7
(g9
S'@m\xde?'
tRp604
ag7
(g9
S'\x80\x9d\xe4?'
tRp605
ag7
(g9
S'\xe0^\xea?'
tRp606
ag7
(g9
S'\xa0\x9c\xe3?'
tRp607
ag7
(g9
S'\x80\xeb\xe5?'
tRp608
ag7
(g9
S'\xe0\x1a\xe1?'
tRp609
ag7
(g9
S'\xa0S\xe0?'
tRp610
ag7
(g9
S'\x00\xb6\xdf?'
tRp611
ag7
(g9
S'\xa0\xdb\xdc?'
tRp612
ag7
(g9
S'@\x9b\xe2?'
tRp613
ag7
(g9
S'\x00\x93\xe6?'
tRp614
ag7
(g9
S'\x90%\x10@'
tRp615
ag7
(g9
S'p\xcf&@'
tRp616
ag7
(g9
S'\xe0\xf98@'
tRp617
ag7
(g9
S'\xc0\xf0T@'
tRp618
ag7
(g9
S'\xb07i@'
tRp619
ag7
(g9
S'\xa0\x87\x93@'
tRp620
ag7
(g9
S'\x80_\xdb@'
tRp621
ag7
(g9
S'@\xa4\x0fA'
tRp622
ag7
(g9
S'\xa8\x897A'
tRp623
ag7
(g9
S'\x18XaA'
tRp624
ag7
(g9
S'\x84u\x84A'
tRp625
ag7
(g9
S'\x00\xad\x96A'
tRp626
ag7
(g9
S'2)\xa8A'
tRp627
ag7
(g9
S'\x9a\xf4\xb8A'
tRp628
ag7
(g9
S'z\t\xcfA'
tRp629
ag7
(g9
S'2Q\xdcA'
tRp630
ag7
(g9
S'>$\xe9A'
tRp631
ag7
(g9
S'\xc2\x9f\xf5A'
tRp632
ag7
(g9
S'\xbd\xc4\x00B'
tRp633
ag7
(g9
S'\xa1\xe7\x06B'
tRp634
ag7
(g9
S'\xb7\xe1\x0cB'
tRp635
ag7
(g9
S'\x07\x96\x12B'
tRp636
ag7
(g9
S'\xab7\x18B'
tRp637
ag7
(g9
S'\r\x9f\x1dB'
tRp638
ag7
(g9
S'o="B'
tRp639
ag7
(g9
S'/\xed%B'
tRp640
ag7
(g9
S'\xcd$(B'
tRp641
ag7
(g9
S'[\x86(B'
tRp642
ag7
(g9
S'?\x01(B'
tRp643
ag7
(g9
S'I\xb9%B'
tRp644
ag7
(g9
S'\x81\x06"B'
tRp645
ag7
(g9
S'\xb9P\x1cB'
tRp646
ag7
(g9
S'{\x04\x15B'
tRp647
ag7
(g9
S'\x0bG\x0cB'
tRp648
ag7
(g9
S'\xef\x1b\x02B'
tRp649
ag7
(g9
S'\xda\x91\xedA'
tRp650
ag7
(g9
S'@\x7f\xd4A'
tRp651
ag7
(g9
S'\x0e\x1b\xbaA'
tRp652
ag7
(g9
S'\x98q\x9fA'
tRp653
ag7
(g9
S'\xf0\xd0qA'
tRp654
ag7
(g9
S'\x80UZA'
tRp655
ag7
(g9
S'\xa8\xe0\x1cA'
tRp656
ag7
(g9
S'x;\nA'
tRp657
ag7
(g9
S'\x08\xb5\xd7@'
tRp658
ag7
(g9
S'h\x17\xa8@'
tRp659
ag7
(g9
S'\xf0\x1cn@'
tRp660
ag7
(g9
S'\xd0\xdaD@'
tRp661
ag7
(g9
S'\xf0\x99/@'
tRp662
ag7
(g9
S'\xa0\xa2\n@'
tRp663
ag7
(g9
S'\x00\xb4\xf2?'
tRp664
ag7
(g9
S'\xe0\xb7\xdf?'
tRp665
ag7
(g9
S'\xa0+\xd0?'
tRp666
ag7
(g9
S'\xe0\x08\xb7?'
tRp667
ag7
(g9
S'\xc0`\xab?'
tRp668
ag7
(g9
S'\x80\xf3\xa9?'
tRp669
ag7
(g9
S'\xe0e\xa0?'
tRp670
ag7
(g9
S'@:\x9a?'
tRp671
ag7
(g9
S'\xa0)\x9b?'
tRp672
ag7
(g9
S'\xc0|\x9a?'
tRp673
ag7
(g9
S'\xe0/\x9b?'
tRp674
ag7
(g9
S'\x00$\x96?'
tRp675
ag7
(g9
S'\x80P\x95?'
tRp676
ag7
(g9
S'\x80\xc1\x9f?'
tRp677
ag7
(g9
S'\xc0%\x9f?'
tRp678
ag7
(g9
S'@x\xa1?'
tRp679
ag7
(g9
S'\x80{\x98?'
tRp680
ag7
(g9
S'\x00d\x93?'
tRp681
ag7
(g9
S'\xc0D\x90?'
tRp682
ag7
(g9
S'\xa0\xfb\x92?'
tRp683
ag7
(g9
S'\xe0\x02\x97?'
tRp684
ag7
(g9
S'\x00\xee\x95?'
tRp685
ag7
(g9
S'\xc0\xb3\x91?'
tRp686
ag7
(g9
S'@\xa2\x8f?'
tRp687
ag7
(g9
S'\xa0\x9e\x96?'
tRp688
ag7
(g9
S' `\x94?'
tRp689
ag7
(g9
S'\x001\x96?'
tRp690
ag7
(g9
S' &\x91?'
tRp691
ag7
(g9
S'@\xe8\x91?'
tRp692
ag7
(g9
S'@E\x8c?'
tRp693
ag7
(g9
S'\xa0W\x95?'
tRp694
ag7
(g9
S'\xa08\xb8?'
tRp695
ag7
(g9
S'@O\xe3?'
tRp696
ag7
(g9
S'P\x1c\x10@'
tRp697
ag7
(g9
S'\x00\x02\x1f@'
tRp698
ag7
(g9
S'\xd0\\9@'
tRp699
ag7
(g9
S'0\x8ea@'
tRp700
ag7
(g9
S'H\x97\x91@'
tRp701
ag7
(g9
S'\xe8\xe2\xbf@'
tRp702
ag7
(g9
S'\xd0l\xf6@'
tRp703
ag7
(g9
S'\x80\x11\x17A'
tRp704
ag7
(g9
S'\x0c\x9a5A'
tRp705
ag7
(g9
S'\xac\x13VA'
tRp706
ag7
(g9
S'\xa0\xbfwA'
tRp707
ag7
(g9
S'\xc4K\x8cA'
tRp708
ag7
(g9
S'NW\x9cA'
tRp709
ag7
(g9
S'z\xcf\xacA'
tRp710
ag7
(g9
S'0\x13\xc6A'
tRp711
ag7
(g9
S'8\x8c\xd6A'
tRp712
ag7
(g9
S'\x10\xa7\xe5A'
tRp713
ag7
(g9
S'\x14\xac\xf3A'
tRp714
ag7
(g9
S'R\xa8\xffA'
tRp715
ag7
(g9
S'\xd3\x91\x04B'
tRp716
ag7
(g9
S'\xb5\xe8\x08B'
tRp717
ag7
(g9
S'\x0f\xf7\x0cB'
tRp718
ag7
(g9
S'\xa1\xad\x10B'
tRp719
ag7
(g9
S'e\xa8\x13B'
tRp720
ag7
(g9
S'\x17\xd2\x15B'
tRp721
ag7
(g9
S'\xb7=\x17B'
tRp722
ag7
(g9
S'\xe5\xbd\x17B'
tRp723
ag7
(g9
S']\xff\x16B'
tRp724
ag7
(g9
S'\xcb\xd5\x14B'
tRp725
ag7
(g9
S'\x13\xfb\x10B'
tRp726
ag7
(g9
S'\x0b\x11\x0bB'
tRp727
ag7
(g9
S'\x7ft\x03B'
tRp728
ag7
(g9
S'B\x8a\xf5A'
tRp729
ag7
(g9
S'd-\xe1A'
tRp730
ag7
(g9
S'\xa8\xd8\xc9A'
tRp731
ag7
(g9
S'Ri\xb0A'
tRp732
ag7
(g9
S">'\x98A"
tRp733
ag7
(g9
S'Hx\x81A'
tRp734
ag7
(g9
S'\xcc\xa6XA'
tRp735
ag7
(g9
S'\xe4?4A'
tRp736
ag7
(g9
S'\xd0\xe2\x14A'
tRp737
ag7
(g9
S'\xa0\x90\xd9@'
tRp738
ag7
(g9
S'P3\xb0@'
tRp739
ag7
(g9
S'\xd0\xbf\x8f@'
tRp740
ag7
(g9
S'\x00\xcck@'
tRp741
ag7
(g9
S'0\xbbH@'
tRp742
ag7
(g9
S'\xe0\xed3@'
tRp743
ag7
(g9
S'\x90\x11%@'
tRp744
ag7
(g9
S'\x10:\x14@'
tRp745
ag7
(g9
S'P\x07\x08@'
tRp746
ag7
(g9
S' \x15\xfd?'
tRp747
ag7
(g9
S'@\xe5\xfa?'
tRp748
ag7
(g9
S'\xc0\xf8\xed?'
tRp749
ag7
(g9
S' \xec\xef?'
tRp750
ag7
(g9
S'`s\xee?'
tRp751
ag7
(g9
S'`s\xee?'
tRp752
ag7
(g9
S'\xe0\xd6\xdf?'
tRp753
ag7
(g9
S'\xe0\xd6\xdf?'
tRp754
ag7
(g9
S'\xa0?\xe4?'
tRp755
ag7
(g9
S'\xe0\xb3\xdd?'
tRp756
ag7
(g9
S'\xc0\x98\xe0?'
tRp757
ag7
(g9
S'\xe0\xc0\xea?'
tRp758
ag7
(g9
S'\xc0k\xe5?'
tRp759
ag7
(g9
S'\x807\xed?'
tRp760
ag7
(g9
S'\x80\xe0\xe1?'
tRp761
ag7
(g9
S'\x80\n\xdd?'
tRp762
ag7
(g9
S'\x00\xa0\xdf?'
tRp763
ag7
(g9
S'`w\xe1?'
tRp764
ag7
(g9
S'\xe0\xb9\xe1?'
tRp765
ag7
(g9
S'\x80t\xe4?'
tRp766
ag7
(g9
S'\xc0_\xe6?'
tRp767
ag7
(g9
S'@\x8a\xe3?'
tRp768
ag7
(g9
S'`9\xda?'
tRp769
ag7
(g9
S'\x00\x8d\xd9?'
tRp770
ag7
(g9
S'\x80\xb6\xde?'
tRp771
ag7
(g9
S' h\xe5?'
tRp772
ag7
(g9
S'\x00\xe0\xe9?'
tRp773
ag7
(g9
S'\x00\x00\xe8?'
tRp774
ag7
(g9
S'PB\n@'
tRp775
ag7
(g9
S'\x90\xfe!@'
tRp776
ag7
(g9
S'\x90\xfe!@'
tRp777
ag7
(g9
S'\xe0N0@'
tRp778
ag7
(g9
S'\x10\xc83@'
tRp779
ag7
(g9
S'\xd0\x88J@'
tRp780
ag7
(g9
S'\x10;q@'
tRp781
ag7
(g9
S'\xa0\xe7\x94@'
tRp782
ag7
(g9
S'x\xf5\xbe@'
tRp783
ag7
(g9
S'\x80\xc6\xf6@'
tRp784
ag7
(g9
S'\xd0\xc8\x1bA'
tRp785
ag7
(g9
S'L\xac=A'
tRp786
ag7
(g9
S'L\x07tA'
tRp787
ag7
(g9
S'\xa0\xe0\x8bA'
tRp788
ag7
(g9
S'\xd4\x1b\x9dA'
tRp789
ag7
(g9
S'\x14\xa3\xacA'
tRp790
ag7
(g9
S'\xd8\xb5\xb3A'
tRp791
ag7
(g9
S'\x90\x8b\xcaA'
tRp792
ag7
(g9
S'\xe4\xe7\xd1A'
tRp793
ag7
(g9
S'\xe8\xa6\xe5A'
tRp794
ag7
(g9
S'\x82%\xf3A'
tRp795
ag7
(g9
S'\xb6\x1a\xf9A'
tRp796
ag7
(g9
S'cU\x05B'
tRp797
ag7
(g9
S'3*\x08B'
tRp798
ag7
(g9
S'A\xed\x0fB'
tRp799
ag7
(g9
S'\xa9\xcb\x14B'
tRp800
ag7
(g9
S'+\xd1\x1aB'
tRp801
ag7
(g9
S'+\xd1\x1aB'
tRp802
ag7
(g9
S'\xeb6\x1fB'
tRp803
ag7
(g9
S'\xaf\xf0\x1fB'
tRp804
ag7
(g9
S'\x0b\xb4\x1bB'
tRp805
ag7
(g9
S'\x0b\xb4\x1bB'
tRp806
ag7
(g9
S'/\xc8\x11B'
tRp807
ag7
(g9
S'\xa9\xe9\x0bB'
tRp808
ag7
(g9
S'\xfd\x91\x05B'
tRp809
ag7
(g9
S'd\xec\xf3A'
tRp810
ag7
(g9
S'\xc4|\xeaA'
tRp811
ag7
(g9
S'0\x9d\xd5A'
tRp812
ag7
(g9
S'\xd6\xcf\xbfA'
tRp813
ag7
(g9
S'V\xe5\xa8A'
tRp814
ag7
(g9
S'\xf2\xb9\x90A'
tRp815
ag7
(g9
S'(\xf1pA'
tRp816
ag7
(g9
S'X\x14DA'
tRp817
ag7
(g9
S'\x80\xa5\x0cA'
tRp818
ag7
(g9
S'\xe8z\xdd@'
tRp819
ag7
(g9
S'\x98\x1e\xaf@'
tRp820
ag7
(g9
S'\x88m\x8c@'
tRp821
ag7
(g9
S'p\x13e@'
tRp822
ag7
(g9
S'0\x06<@'
tRp823
ag7
(g9
S' \xfd\x1e@'
tRp824
ag7
(g9
S'\x10\xb8\n@'
tRp825
ag7
(g9
S'`\xe4\xfe?'
tRp826
ag7
(g9
S'\x80\xa7\xf0?'
tRp827
ag7
(g9
S'\x80=\xda?'
tRp828
ag7
(g9
S'\xe0=\xcb?'
tRp829
ag7
(g9
S' \xed\xbe?'
tRp830
ag7
(g9
S'\xa0\xec\xc1?'
tRp831
ag7
(g9
S'\xa0]\xbb?'
tRp832
ag7
(g9
S'\xa0\x06\xba?'
tRp833
ag7
(g9
S'\x00?\xb2?'
tRp834
ag7
(g9
S'` \xb8?'
tRp835
ag7
(g9
S'@g\xb1?'
tRp836
ag7
(g9
S'`-\xac?'
tRp837
ag7
(g9
S'\xa0@\xb4?'
tRp838
ag7
(g9
S'`\xc1\xad?'
tRp839
ag7
(g9
S'\xe0\xf8\xaf?'
tRp840
ag7
(g9
S'\xa0@\xa6?'
tRp841
ag7
(g9
S' 0\xab?'
tRp842
ag7
(g9
S' \xa9\xa9?'
tRp843
ag7
(g9
S'`\xad\xab?'
tRp844
ag7
(g9
S'\xc0\x8c\xae?'
tRp845
ag7
(g9
S'\x80T\xa5?'
tRp846
ag7
(g9
S' \xa8\xa7?'
tRp847
ag7
(g9
S'\xc0\x1a\xa7?'
tRp848
ag7
(g9
S'\xe0\xac\xad?'
tRp849
ag7
(g9
S'\xa0\xee\xb2?'
tRp850
ag7
(g9
S'\x00\xad\xac?'
tRp851
ag7
(g9
S'\x00\xa9\xaf?'
tRp852
ag7
(g9
S'\xa0\xc0\xb9?'
tRp853
ag7
(g9
S'\xc0o\xf8?'
tRp854
ag7
(g9
S'\x90Z#@'
tRp855
ag7
(g9
S'\xb0\x85?@'
tRp856
ag7
(g9
S'\x00\x18Z@'
tRp857
ag7
(g9
S'\xa0:\x94@'
tRp858
ag7
(g9
S'X\xdc\xb2@'
tRp859
ag7
(g9
S'\xb8\\\xdc@'
tRp860
ag7
(g9
S'\x908\tA'
tRp861
ag7
(g9
S'\xec \x19A'
tRp862
ag7
(g9
S'\x00\xb7JA'
tRp863
ag7
(g9
S'\xd4\xd9jA'
tRp864
ag7
(g9
S'\x8a7\x84A'
tRp865
ag7
(g9
S'^p\x92A'
tRp866
ag7
(g9
S'L\x07\xa0A'
tRp867
ag7
(g9
S'\xd2\x98\xacA'
tRp868
ag7
(g9
S'\xa4\x0f\xb8A'
tRp869
ag7
(g9
S'\x9e\x81\xc2A'
tRp870
ag7
(g9
S'\xb2\r\xcdA'
tRp871
ag7
(g9
S'\xd2\x83\xd7A'
tRp872
ag7
(g9
S'\xa0h\xe2A'
tRp873
ag7
(g9
S'\xcc\xdc\xecA'
tRp874
ag7
(g9
S'\xdeP\xf6A'
tRp875
ag7
(g9
S':\xac\xffA'
tRp876
ag7
(g9
S'I.\x04B'
tRp877
ag7
(g9
S'\xe75\x08B'
tRp878
ag7
(g9
S'q\xfb\x0bB'
tRp879
ag7
(g9
S'\xa9D\x0fB'
tRp880
ag7
(g9
S'Y\xdb\x11B'
tRp881
ag7
(g9
S'\xe5\x89\x14B'
tRp882
ag7
(g9
S'\xcd\xf8\x16B'
tRp883
ag7
(g9
S'\x85,\x19B'
tRp884
ag7
(g9
S'#P\x19B'
tRp885
ag7
(g9
S'\x99}\x18B'
tRp886
ag7
(g9
S'9\xf1\x16B'
tRp887
ag7
(g9
S'\xcf\x88\x14B'
tRp888
ag7
(g9
S'u?\x11B'
tRp889
ag7
(g9
S'\xe3M\x0cB'
tRp890
ag7
(g9
S'\xed\xdd\x00B'
tRp891
ag7
(g9
S'\xb2\xe2\xf8A'
tRp892
ag7
(g9
S'6\xad\xd8A'
tRp893
ag7
(g9
S'J\x91\xccA'
tRp894
ag7
(g9
S'\xfa\xe1\xb2A'
tRp895
ag7
(g9
S'`\xce\x8bA'
tRp896
ag7
(g9
S'pcfA'
tRp897
ag7
(g9
S'\x9c\x93<A'
tRp898
ag7
(g9
S'\xe4\xe9\x18A'
tRp899
ag7
(g9
S'|&\x08A'
tRp900
ag7
(g9
S'`7\xc3@'
tRp901
ag7
(g9
S'`7\xc3@'
tRp902
ag7
(g9
S'\xf8H\x80@'
tRp903
ag7
(g9
S'p0j@'
tRp904
ag7
(g9
S'P\x8fC@'
tRp905
ag7
(g9
S' \xab&@'
tRp906
ag7
(g9
S'\xf0\x7f\x15@'
tRp907
ag7
(g9
S'\xf0\xcb\x08@'
tRp908
ag7
(g9
S' `\xf8?'
tRp909
ag7
(g9
S'\x00\xf1\xe6?'
tRp910
ag7
(g9
S' \x0b\xd9?'
tRp911
ag7
(g9
S' \x87\xcb?'
tRp912
ag7
(g9
S' 1\xc6?'
tRp913
ag7
(g9
S'\x80\x8d\xc8?'
tRp914
ag7
(g9
S'\x80\x12\xcb?'
tRp915
ag7
(g9
S'`\xb1\xbc?'
tRp916
ag7
(g9
S'\x00\xd9\xc1?'
tRp917
ag7
(g9
S' #\xc5?'
tRp918
ag7
(g9
S'@\xb9\xbf?'
tRp919
ag7
(g9
S'\x80\xbb\xbe?'
tRp920
ag7
(g9
S' \xf7\xbd?'
tRp921
ag7
(g9
S'\xc0\xa7\xc3?'
tRp922
ag7
(g9
S'\xa0\x9e\xc6?'
tRp923
ag7
(g9
S'\xe0D\xbf?'
tRp924
ag7
(g9
S'@\xda\xb9?'
tRp925
ag7
(g9
S'\x80\xff\xba?'
tRp926
ag7
(g9
S' \xdb\xbf?'
tRp927
ag7
(g9
S'`\xc2\xc3?'
tRp928
ag7
(g9
S'@\t\xc6?'
tRp929
ag7
(g9
S'\x00\xf4\xd1?'
tRp930
ag7
(g9
S'\x00\xf4\xd1?'
tRp931
ag7
(g9
S'p\xd4\x02@'
tRp932
ag7
(g9
S'p#\x10@'
tRp933
ag7
(g9
S'pl\x1a@'
tRp934
ag7
(g9
S'\x90\xd2,@'
tRp935
ag7
(g9
S'\x80\xdbL@'
tRp936
ag7
(g9
S'01~@'
tRp937
ag7
(g9
S'\xe8n\xbd@'
tRp938
ag7
(g9
S'\xd8\xc7\xf3@'
tRp939
ag7
(g9
S'\x18\xd4\x19A'
tRp940
ag7
(g9
S'$k<A'
tRp941
ag7
(g9
S'\xa4\nLA'
tRp942
ag7
(g9
S'\x90\x84~A'
tRp943
ag7
(g9
S'\xb8\xfd\x8fA'
tRp944
ag7
(g9
S'\x82\x9f\xa0A'
tRp945
ag7
(g9
S'\xc6\x13\xb1A'
tRp946
ag7
(g9
S'\x00\xcd\xc1A'
tRp947
ag7
(g9
S'x`\xd2A'
tRp948
ag7
(g9
S'\x10R\xdbA'
tRp949
ag7
(g9
S'\xce\xee\xedA'
tRp950
ag7
(g9
S'\x8d\x98\x05B'
tRp951
ag7
(g9
S'\xa1\xa8\x0eB'
tRp952
ag7
(g9
S'\xebq\x19B'
tRp953
ag7
(g9
S'\xff\x1f\x1fB'
tRp954
ag7
(g9
S'\xf1X#B'
tRp955
ag7
(g9
S'\xf1X#B'
tRp956
ag7
(g9
S"\x1d\xc6'B"
tRp957
ag7
(g9
S"\x1d\xc6'B"
tRp958
ag7
(g9
S"\xdb\x97'B"
tRp959
ag7
(g9
S"\x87\x0f'B"
tRp960
ag7
(g9
S'\x9b\x93&B'
tRp961
ag7
(g9
S'\xcf~%B'
tRp962
ag7
(g9
S'\xf9\xd1#B'
tRp963
ag7
(g9
S'A\x11"B'
tRp964
ag7
(g9
S'?=\x1fB'
tRp965
ag7
(g9
S'\x1d[\x1cB'
tRp966
ag7
(g9
S'\x03\xf7\x19B'
tRp967
ag7
(g9
S'\xcfz\x17B'
tRp968
ag7
(g9
S'\x97\xce\x14B'
tRp969
ag7
(g9
S'\xa9@\x12B'
tRp970
ag7
(g9
S'\x91F\x0fB'
tRp971
ag7
(g9
S'\x19\xb2\rB'
tRp972
ag7
(g9
S'M~\x07B'
tRp973
ag7
(g9
S'n\xa9\xfdA'
tRp974
ag7
(g9
S'h\xe6\xf6A'
tRp975
ag7
(g9
S'j\xd9\xe4A'
tRp976
ag7
(g9
S'\x1e\xe9\xccA'
tRp977
ag7
(g9
S'\xce\xac\xb3A'
tRp978
ag7
(g9
S'n\x84\x99A'
tRp979
ag7
(g9
S'\xb8\xe3~A'
tRp980
ag7
(g9
S'DB7A'
tRp981
ag7
(g9
S'\xf0\xb7\x0fA'
tRp982
ag7
(g9
S'X\x91\xdd@'
tRp983
ag7
(g9
S'\xd80\xa9@'
tRp984
ag7
(g9
S'\xe0A\x84@'
tRp985
ag7
(g9
S'\xa0lQ@'
tRp986
ag7
(g9
S'\x90l-@'
tRp987
ag7
(g9
S'P\xc0\x11@'
tRp988
ag7
(g9
S'@\xd6\xf4?'
tRp989
ag7
(g9
S'`\xbb\xd1?'
tRp990
ag7
(g9
S'@\xd9\xb9?'
tRp991
ag7
(g9
S'\x00|\xab?'
tRp992
ag7
(g9
S'\x80\x14\x97?'
tRp993
ag7
(g9
S' \xe8\x94?'
tRp994
ag7
(g9
S'`6\x90?'
tRp995
ag7
(g9
S'`\x02\x91?'
tRp996
asS'adc'
p997
(lp998
F1023
aF1023
aF1023
aF1023
aF1023
aF1023
aF1023
aF1023
aF1023
aF1023
aF1023
aF1023
aF1023
aF1023
aF1023
aF1023
aF1023
aF1023
aF1023
aF1023
aF1023
aF1023
aF1023
aF1023
aF1023
aF1023
aF1023
aF1023
aF1018
aF952
aF887
aF793
aF680
aF592
aF508
aF454
aF349
aF302
aF259
aF238
aF218
aF206
aF177
aF167
aF156
aF148
aF137
aF129
aF124
aF121
aF113
aF110
aF108
aF106
aF105
aF102
aF101
aF100
aF99
aF99
aF99
aF99
aF99
aF99
aF99
aF100
aF102
aF104
aF106
aF110
aF115
aF125
aF139
aF147
aF166
aF209
aF260
aF314
aF368
aF489
aF551
aF568
aF699
aF926
aF953
aF948
aF943
aF940
aF938
aF937
aF936
aF937
aF934
aF933
aF933
aF932
aF931
aF930
aF931
aF932
aF931
aF930
aF926
aF926
aF913
aF867
aF826
aF824
aF822
aF747
aF649
aF566
aF461
aF316
aF233
aF176
aF160
aF150
aF143
aF133
aF125
aF118
aF112
aF107
aF102
aF99
aF98
aF97
aF96
aF95
aF95
aF95
aF95
aF95
aF97
aF97
aF97
aF97
aF98
aF98
aF99
aF99
aF100
aF104
aF107
aF113
aF121
aF130
aF149
aF193
aF224
aF299
aF324
aF399
aF601
aF799
aF804
aF794
aF793
aF791
aF789
aF794
aF791
aF786
aF785
aF785
aF784
aF788
aF789
aF786
aF785
aF783
aF781
aF782
aF782
aF781
aF745
aF703
aF701
aF698
aF666
aF624
aF567
aF423
aF365
aF307
aF245
aF202
aF184
aF173
aF142
aF136
aF121
aF116
aF109
aF104
aF100
aF98
aF96
aF95
aF94
aF93
aF92
aF93
aF92
aF92
aF92
aF92
aF95
aF98
aF104
aF105
aF97
aF97
aF98
aF99
aF100
aF101
aF102
aF104
aF106
aF110
aF118
aF132
aF155
aF180
aF229
aF309
aF414
aF575
aF703
aF805
aF858
aF861
aF860
aF862
aF858
aF859
aF862
aF860
aF861
aF860
aF859
aF861
aF862
aF865
aF864
aF861
aF859
aF859
aF860
aF858
aF835
aF772
aF756
aF753
aF736
aF659
aF586
aF514
aF423
aF326
aF265
aF232
aF210
aF197
aF189
aF182
aF169
aF155
aF144
aF135
aF128
aF122
aF118
aF113
aF108
aF106
aF104
aF102
aF101
aF101
aF100
aF99
aF98
aF98
aF98
aF98
aF98
aF98
aF98
aF98
aF98
aF98
aF99
aF100
aF101
aF103
aF105
aF109
aF116
aF126
aF139
aF165
aF209
aF274
aF410
aF517
aF627
aF700
aF720
aF723
aF821
aF798
aF789
aF783
aF779
aF774
aF775
aF775
aF777
aF768
aF767
aF765
aF763
aF765
aF768
aF763
aF761
aF760
aF759
aF758
aF757
aF757
aF754
aF753
aF752
aF750
aF751
aF751
aF749
aF741
aF715
aF699
aF682
aF649
aF564
aF471
aF374
aF311
aF256
aF212
aF193
aF180
aF162
aF154
aF140
aF128
aF122
aF115
aF112
aF107
aF104
aF101
aF100
aF98
aF97
aF96
aF95
aF95
aF95
aF95
aF95
aF95
aF95
aF95
aF95
aF95
aF96
aF97
aF98
aF103
aF108
aF117
aF129
aF143
aF161
aF181
aF225
aF284
aF326
aF364
aF433
aF462
aF463
aF460
aF460
aF463
aF465
aF465
aF463
aF460
aF458
aF457
aF457
aF457
aF457
aF455
aF454
aF453
aF452
aF451
aF452
aF451
aF451
aF450
aF450
aF448
aF448
aF448
aF450
aF450
aF449
aF448
aF448
aF449
aF450
aF453
aF450
aF440
aF436
aF436
aF434
aF426
aF411
aF397
aF387
aF338
aF287
aF246
aF220
aF190
aF171
aF156
aF141
aF132
aF129
aF116
aF114
aF110
aF106
aF104
aF102
aF100
aF99
aF98
aF97
aF95
aF94
aF94
aF93
aF93
aF93
aF93
aF93
aF93
aF93
aF93
aF93
aF94
aF95
aF96
aF99
aF103
aF109
aF119
aF126
aF161
aF181
aF246
aF295
aF341
aF465
aF561
aF595
aF657
aF659
aF648
aF643
aF648
aF651
aF647
aF643
aF640
aF636
aF637
aF641
aF642
aF642
aF641
aF637
aF634
aF634
aF636
aF638
aF636
aF633
aF631
aF631
aF629
aF630
aF631
aF630
aF616
aF566
aF559
aF571
aF572
aF561
aF547
aF519
aF470
aF367
aF299
aF255
aF229
aF201
aF181
aF170
aF161
aF154
aF146
aF137
aF128
aF122
aF118
aF113
aF109
aF105
aF103
aF102
aF101
aF100
aF99
aF98
aF98
aF98
aF98
aF97
aF98
aF98
aF98
aF98
aF98
aF98
aF98
aF98
aF99
aF101
aF104
aF111
aF124
aF137
aF155
aF176
aF217
aF278
aF334
aF429
aF517
aF583
aF666
aF669
aF668
aF656
aF652
aF650
aF652
aF650
aF645
aF642
aF640
aF639
aF640
aF642
aF641
aF640
aF636
aF635
aF634
aF640
aF644
aF643
aF640
aF637
aF636
aF635
aF636
aF642
aF643
aF640
aF638
aF636
aF623
aF534
aF523
aF520
aF426
aF346
aF261
aF217
aF159
aF140
aF128
aF121
aF115
aF110
aF107
aF104
aF101
aF99
aF98
aF96
aF94
aF93
aF95
aF93
aF92
aF92
aF94
aF94
aF94
aF94
aF94
aF95
aF96
aF98
aF101
aF105
aF112
aF125
aF149
aF185
aF250
aF296
aF453
aF727
aF813
aF839
aF819
aF814
aF815
aF811
aF813
aF812
aF813
aF806
aF806
aF803
aF803
aF810
aF812
aF814
aF814
aF811
aF805
aF803
aF803
aF805
aF837
aF824
aF820
aF818
aF816
aF814
aF812
aF818
aF816
aF815
aF812
aF811
aF810
aF810
aF793
aF697
aF665
aF657
aF623
aF528
aF469
aF303
aF241
aF204
aF178
aF155
aF148
aF131
aF123
aF116
aF113
aF106
aF103
aF100
aF98
aF97
aF96
aF95
aF95
aF94
aF93
aF93
aF93
aF93
aF93
aF93
aF95
aF96
aF99
aF105
aF108
aF120
aF137
aF160
aF209
aF272
aF337
aF445
aF578
aF653
aF682
aF689
aF679
aF670
aF667
aF667
aF672
aF673
aF670
aF669
aF663
aF660
aF659
aF661
aF666
aF665
aF662
aF658
aF656
aF657
aF660
aF663
aF660
aF657
aF655
aF653
aF654
aF657
aF658
aF659
aF658
aF654
aF653
aF653
aF652
aF570
aF544
aF556
aF559
aF522
aF448
aF371
aF282
aF215
aF179
aF156
aF140
aF127
aF120
aF115
aF111
aF107
aF105
aF101
aF99
aF96
aF95
aF94
aF93
aF92
aF91
aF90
aF90
aF90
aF90
aF91
aF93
aF94
aF94
aF97
aF101
aF107
aF116
aF120
aF152
aF202
aF288
aF400
aF501
aF679
aF720
aF771
aF774
aF766
aF764
aF760
aF753
aF751
aF750
aF748
aF750
aF752
aF750
aF746
aF743
aF744
aF746
aF752
aF755
aF755
aF752
aF748
aF746
aF747
aF748
aF750
aF750
aF748
aF745
aF742
aF742
aF743
aF740
aF680
aF550
aF541
aF527
aF432
aF351
aF294
aF232
aF190
aF164
aF148
aF137
aF128
aF123
aF119
aF116
aF112
aF109
aF106
aF104
aF102
aF100
aF98
aF96
aF95
aF94
aF93
aF92
aF92
aF91
aF91
aF91
aF91
aF92
aF93
aF93
aF94
aF95
aF98
aF103
aF110
aF122
aF144
aF182
aF255
aF318
aF378
aF491
aF638
aF690
aF688
aF728
aF724
aF722
aF718
aF717
aF717
aF716
aF716
aF712
aF708
aF708
aF707
aF707
aF710
aF708
aF707
aF705
aF702
aF702
aF703
aF706
aF707
aF704
aF702
aF701
aF702
aF692
aF638
aF633
aF628
aF614
aF530
aF447
aF385
aF262
aF211
aF178
aF155
aF141
aF130
aF120
aF115
aF111
aF103
aF100
aF96
aF93
aF94
aF97
aF96
aF97
aF99
aF114
aF110
aF107
aF107
aF113
aF108
aF107
aF99
aF98
aF98
aF97
aF96
aF96
aF96
aF96
aF96
aF97
aF97
aF98
aF103
aF109
aF122
aF149
aF195
aF283
aF385
aF673
aF896
aF880
aF872
aF875
aF876
aF879
aF876
aF873
aF871
aF870
aF875
aF873
aF873
aF871
aF870
as.