(lp1
(lp2
F0.02
aF0.59999999999999998
aF0
aa(lp3
F0.015027668327093124
aF0.7413221001625061
aF0
aa(lp4
F0.019999967887997627
aF0.68000006675720215
aF0
aa(lp5
F0.084990933537483215
aF0.61992520093917847
aF0
aa(lp6
F0.084990948438644409
aF0.59992527961730957
aF0
aa(lp7
F0.039963755756616592
aF0.77970051765441895
aF0
aa(lp8
F0.085009567439556122
aF0.68117243051528931
aF0
aa(lp9
F0.080000000000000002
aF0.71999999999999997
aF0
aa(lp10
F0.14000000000000001
aF0.41999999999999998
aF0
aa(lp11
F0.080000000000000002
aF0.41999999999999998
aF0
aa(lp12
F0.040000000000000001
aF0.59999999999999998
aF0
aa(lp13
F0.040000000000000001
aF0.68000000000000005
aF0
aa(lp14
F0.035121146589517593
aF0.72755742073059082
aF0
aa(lp15
F0.020036123692989349
aF0.78029954433441162
aF0
aa(lp16
F0.02
aF0.10000000000000001
aF0
aa(lp17
F0.084990918636322021
aF0.65992528200149536
aF0
aa(lp18
F0.10000000000000001
aF0.17999999999999999
aF0
aa(lp19
F0.084990918636322021
aF0.63992512226104736
aF0
aa(lp20
F0.093849346041679382
aF-0.017242949455976486
aF0
aa(lp21
F0.10000000000000001
aF0.10000000000000001
aF0
aa(lp22
F0.10000000000000001
aF0.14000000000000001
aF0
aa(lp23
F0.10000000000000001
aF0.28000000000000003
aF0
aa(lp24
F0.059999999999999998
aF0.10000000000000001
aF0
aa(lp25
F0.14000000000000001
aF0.02
aF0
aa(lp26
F0.13620075583457947
aF-0.0036850967444479465
aF0
aa(lp27
F0.13504666090011597
aF0.042568907141685486
aF0
aa(lp28
F0.14000000000000001
aF0.10000000000000001
aF0
aa(lp29
F0.080000000000000002
aF0.78000000000000003
aF0
aa(lp30
F0.14000000000000001
aF0.12
aF0
aa(lp31
F0.14000000000000001
aF0.17999999999999999
aF0
aa(lp32
F0.14000000000000001
aF0.16
aF0
aa(lp33
F0.10616384446620941
aF0.67491829395294189
aF0
aa(lp34
F0.10257028043270111
aF0.72495090961456299
aF0
aa(lp35
F0.10000000000000001
aF0.78000000000000003
aF0
aa(lp36
F0.040000000000000001
aF0.28000000000000003
aF0
aa(lp37
F0.040000000000000001
aF0.35999999999999999
aF0
aa(lp38
F0.059999999999999998
aF0.28000000000000003
aF0
aa(lp39
F0.080000000000000002
aF0.29999999999999999
aF0
aa(lp40
F0.080000000000000002
aF0.44
aF0
aa(lp41
F0.10000000000000001
aF0.35999999999999999
aF0
aa(lp42
F0
aF0.68000000000000005
aF0
aa(lp43
F0.02
aF0.56000000000000005
aF0
aa(lp44
F0.080000000000000002
aF0.46000000000000002
aF0
aa(lp45
F0.025121893733739853
aF0.50865459442138672
aF0
aa(lp46
F0.02
aF0.46000000000000002
aF0
aa(lp47
F0.10000000000000001
aF0.46000000000000002
aF0
aa(lp48
F0.097560666501522064
aF0.40377870202064514
aF0
aa(lp49
F0.097560636699199677
aF0.50377869606018066
aF0
aa(lp50
F0.080000000000000002
aF0.52000000000000002
aF0
aa(lp51
F0.10000000000000001
aF0.56000000000000005
aF0
aa(lp52
F0.080000000000000002
aF0.54000000000000004
aF0
aa(lp53
F0.053831890225410461
aF-0.016295351088047028
aF0
aa(lp54
F0.14000000000000001
aF0.44
aF0
aa(lp55
F0.14000000000000001
aF0.52000000000000002
aF0
aa(lp56
F0.040000000000000001
aF0.10000000000000001
aF0
aa(lp57
F0.14000000000000001
aF0.56000000000000005
aF0
aa(lp58
F0.14000000000000001
aF0.32000000000000001
aF0
aa(lp59
F0.12504710257053375
aF0.40366628766059875
aF0
aa(lp60
F0.059999999999999998
aF0.56000000000000005
aF0
aa(lp61
F0.059999999999999998
aF0.54000000000000004
aF0
aa(lp62
F0
aF0.35999999999999999
aF0
aa(lp63
F0.14000000000000001
aF0.46000000000000002
aF0
aa(lp64
F0
aF0.28000000000000003
aF0
aa(lp65
F0.14000000000000001
aF0.78000000000000003
aF0
aa(lp66
F0.14000000000000001
aF0.76000000000000001
aF0
aa(lp67
F0.14000000000000001
aF0.54000000000000004
aF0
aa(lp68
F0.14000000000000001
aF0.64000000000000001
aF0
aa(lp69
F0.12
aF0.34000000000000002
aF0
aa(lp70
F0.12
aF0.29999999999999999
aF0
aa(lp71
F0.1088089793920517
aF0.60485750436782837
aF0
aa(lp72
F0.040000000000000001
aF0.17999999999999999
aF0
aa(lp73
F0.059999939054250717
aF0.78000015020370483
aF0
aa(lp74
F0.060018651187419891
aF0.68124717473983765
aF0
aa(lp75
F0.057523205876350403
aF0.72128462791442871
aF0
aa(lp76
F0.059999999999999998
aF0.59999999999999998
aF0
aa(lp77
F3.7479912862181664e-05
aF0.022494096308946609
aF0
aa(lp78
F0.0061639929190278053
aF-0.0050819595344364643
aF0
aa(lp79
F0.12
aF0.10000000000000001
aF0
aa(lp80
F0.0063136080279946327
aF0.044894613325595856
aF0
aa(lp81
F0.12006933987140656
aF-0.018583532422780991
aF0
aa(lp82
F0
aF0.10000000000000001
aF0
aa(lp83
F0.12
aF0.17999999999999999
aF0
aa(lp84
F0.11990652978420258
aF0.15376466512680054
aF0
aa(lp85
F0.080000000000000002
aF0.17999999999999999
aF0
aa(lp86
F0.073724061250686646
aF-0.0024005963932722807
aF0
aa(lp87
F0.0737614706158638
aF0.020093496888875961
aF0
aa(lp88
F0.072551123797893524
aF0.042606379836797714
aF0
aa(lp89
F0.080000050365924835
aF0.10000002384185791
aF0
aa(lp90
F0.080000000000000002
aF0.14000000000000001
aF0
aa(lp91
F0.059999999999999998
aF0.35999999999999999
aF0
aa(lp92
F0
aF0.59999999999999998
aF0
aa(lp93
F0
aF0.78000000000000003
aF0
aa(lp94
F0
aF0.76000000000000001
aF0
aa(lp95
F0.02
aF0.28000000000000003
aF0
aa(lp96
F0.02
aF0.35999999999999999
aF0
aa(lp97
F0.059999999999999998
aF0.46000000000000002
aF0
aa(lp98
F0.12500964105129242
aF0.62117230892181396
aF0
aa(lp99
F0.12370577454566956
aF0.65745002031326294
aF0
aa(lp100
F0.12
aF0.73999999999999999
aF0
aa(lp101
F0.12
aF0.78000000000000003
aF0
aa(lp102
F0.080000000000000002
aF0.34000000000000002
aF0
aa(lp103
F0.080000000000000002
aF0.32000000000000001
aF0
aa(lp104
F0.080000000000000002
aF0.28000000000000003
aF0
aa(lp105
F0.080000000000000002
aF0.35999999999999999
aF0
aa(lp106
F0
aF0.46000000000000002
aF0
aa(lp107
F0.0049348101019859314
aF0.49618396162986755
aF0
aa(lp108
F0
aF0.56000000000000005
aF0
aa(lp109
F0.02
aF0.17999999999999999
aF0
aa(lp110
F0.080000000000000002
aF0.56000000000000005
aF0
aa(lp111
F0.030069956555962563
aF-0.017486223950982094
aF0
aa(lp112
F0.12
aF0.56000000000000005
aF0
aa(lp113
F0.12378066778182983
aF0.50243806838989258
aF0
aa(lp114
F0.12
aF0.46000000000000002
aF0
aa(lp115
F0
aF0.17999999999999999
aF0
aa(lp116
F0.040000000000000001
aF0.46000000000000002
aF0
aa(lp117
F0.042551599442958832
aF0.52370375394821167
aF0
aa(lp118
F0.040000000000000001
aF0.56000000000000005
aF0
aa(lp119
F0.12009366601705551
aF0.12623518705368042
aF0
aa(lp120
F0.059999999999999998
aF0.17999999999999999
aF0
aa.