(dp1
S'pull_up'
p2
F470
sS'contact_area'
p3
F0.0016000000000000001
sS'adc_bias'
p4
F945
sS'ft'
p5
(lp6
cnumpy.core.multiarray
scalar
p7
(cnumpy
dtype
p8
(S'f4'
I0
I1
tRp9
(I3
S'<'
NNNI-1
I-1
I0
tbS'\x00\x94\x03='
tRp10
ag7
(g9
S'\x00\xd0\xa4<'
tRp11
ag7
(g9
S'\x00X\xe9<'
tRp12
ag7
(g9
S'\x00\x80p;'
tRp13
ag7
(g9
S'\x00x\x8c<'
tRp14
ag7
(g9
S'\x00\x98\xf4<'
tRp15
ag7
(g9
S'\x00\x00\x909'
tRp16
ag7
(g9
S'\x00\xa8\x96\xbc'
tRp17
ag7
(g9
S'\x00\x00\x1a\xbb'
tRp18
ag7
(g9
S'\x00\xf0\\<'
tRp19
ag7
(g9
S'\x00\xa0\x9c;'
tRp20
ag7
(g9
S'\x00^W='
tRp21
ag7
(g9
S'\x00d\xa3<'
tRp22
ag7
(g9
S'\x00\xb8\xf2<'
tRp23
ag7
(g9
S'\x008\xc3<'
tRp24
ag7
(g9
S'\x00r!='
tRp25
ag7
(g9
S'\x00\xeaS='
tRp26
ag7
(g9
S'\x00\xb0\x9a;'
tRp27
ag7
(g9
S'\x00\xb4W='
tRp28
ag7
(g9
S'\x00\xae\x1a='
tRp29
ag7
(g9
S'\x00\x88i<'
tRp30
ag7
(g9
S'\x00\x8eG='
tRp31
ag7
(g9
S'\x00\xb0\x8b='
tRp32
ag7
(g9
S'\x00b\xa1='
tRp33
ag7
(g9
S'\x008\xa9='
tRp34
ag7
(g9
S'\x00P6='
tRp35
ag7
(g9
S'\x00\x8c\x82='
tRp36
ag7
(g9
S'\x00T^>'
tRp37
ag7
(g9
S'@c\x00?'
tRp38
ag7
(g9
S'@\x00/?'
tRp39
ag7
(g9
S'\x80\xf44?'
tRp40
ag7
(g9
S'\xc0\xe4T?'
tRp41
ag7
(g9
S'@\xbf\x82?'
tRp42
ag7
(g9
S'\x80\xef\xd2?'
tRp43
ag7
(g9
S'`q\x10@'
tRp44
ag7
(g9
S'\xa0\x19;@'
tRp45
ag7
(g9
S'\xc0\xf9i@'
tRp46
ag7
(g9
S'`,\xa6@'
tRp47
ag7
(g9
S'(]\xc9@'
tRp48
ag7
(g9
S'\x10q\xed@'
tRp49
ag7
(g9
S'\xf4U\tA'
tRp50
ag7
(g9
S'\xdc\xc2\x12A'
tRp51
ag7
(g9
S'(S2A'
tRp52
ag7
(g9
S'\x84&JA'
tRp53
ag7
(g9
S'\x10\xb9cA'
tRp54
ag7
(g9
S',s}A'
tRp55
ag7
(g9
S'\xb8\xfa\x8aA'
tRp56
ag7
(g9
S'X$\x97A'
tRp57
ag7
(g9
S'\xf2\x8e\xa2A'
tRp58
ag7
(g9
S'RK\xadA'
tRp59
ag7
(g9
S'h\xaa\xb7A'
tRp60
ag7
(g9
S'\xd8\x06\xc2A'
tRp61
ag7
(g9
S'\xbe\xa6\xcdA'
tRp62
ag7
(g9
S'\x18)\xdaA'
tRp63
ag7
(g9
S'\xec<\xe0A'
tRp64
ag7
(g9
S'xa\xf3A'
tRp65
ag7
(g9
S'K\xfa\x03B'
tRp66
ag7
(g9
S'A7\x0bB'
tRp67
ag7
(g9
S'5,\x12B'
tRp68
ag7
(g9
S'\xff\x14\x19B'
tRp69
ag7
(g9
S'\xf3d\x1fB'
tRp70
ag7
(g9
S'\x8bh$B'
tRp71
ag7
(g9
S"a\xfa'B"
tRp72
ag7
(g9
S'\xadL*B'
tRp73
ag7
(g9
S'}\xd1+B'
tRp74
ag7
(g9
S'\xe13,B'
tRp75
ag7
(g9
S'\r\x11,B'
tRp76
ag7
(g9
S'\xfb/,B'
tRp77
ag7
(g9
S'\xc9\xb6,B'
tRp78
ag7
(g9
S'\xc1--B'
tRp79
ag7
(g9
S'\x9d\xc9-B'
tRp80
ag7
(g9
S'\xa5\x82-B'
tRp81
ag7
(g9
S'\xed\x8e+B'
tRp82
ag7
(g9
S'\x01\\)B'
tRp83
ag7
(g9
S'mi%B'
tRp84
ag7
(g9
S'\xdb\xaf\x1aB'
tRp85
ag7
(g9
S'\xbdb\x10B'
tRp86
ag7
(g9
S'\x9f\x1f\x04B'
tRp87
ag7
(g9
S'n\xdb\xecA'
tRp88
ag7
(g9
S'\xd4#\xd0A'
tRp89
ag7
(g9
S'\xf8\xd1\xc1A'
tRp90
ag7
(g9
S'L\xeb\x98A'
tRp91
ag7
(g9
S'\xd2,\x80A'
tRp92
ag7
(g9
S'\x04wRA'
tRp93
ag7
(g9
S'\xbc\xb7(A'
tRp94
ag7
(g9
S'\xd0\x13\x03A'
tRp95
ag7
(g9
S'\xb0\xf6\xc5@'
tRp96
ag7
(g9
S'\x885\xac@'
tRp97
ag7
(g9
S'\xc0N[@'
tRp98
ag7
(g9
S'p\x8c\r@'
tRp99
ag7
(g9
S'p\x8c\r@'
tRp100
ag7
(g9
S'`k\xbc?'
tRp101
ag7
(g9
S'\xa0\xef\x83?'
tRp102
ag7
(g9
S'\xc0\\I?'
tRp103
ag7
(g9
S'\x005&?'
tRp104
ag7
(g9
S'@\x1c\x12?'
tRp105
ag7
(g9
S'\xc0E\x01?'
tRp106
ag7
(g9
S'\x00n\xe6>'
tRp107
ag7
(g9
S'\x80A\xc7>'
tRp108
ag7
(g9
S'\xc0Z\xb7>'
tRp109
ag7
(g9
S'\xc0F\xa3>'
tRp110
ag7
(g9
S'\xc0>\xa3>'
tRp111
ag7
(g9
S'\x007\xa0>'
tRp112
ag7
(g9
S'\x80\xca\xcc>'
tRp113
ag7
(g9
S'\x80\xd0\xfc>'
tRp114
ag7
(g9
S'\xc0\x84*?'
tRp115
ag7
(g9
S'\xc0>}?'
tRp116
ag7
(g9
S'`\xa2\xd0?'
tRp117
ag7
(g9
S'\xc0\xd7\xf2?'
tRp118
ag7
(g9
S'0J\x19@'
tRp119
ag7
(g9
S'\x80\x8cl@'
tRp120
ag7
(g9
S'\x18y\x9b@'
tRp121
ag7
(g9
S'\xa8\xcb\xc7@'
tRp122
ag7
(g9
S'H\x1e\xf9@'
tRp123
ag7
(g9
S'\xbc\x08\x18A'
tRp124
ag7
(g9
S'P\xd54A'
tRp125
ag7
(g9
S'\xecfRA'
tRp126
ag7
(g9
S'\xf4\xa5bA'
tRp127
ag7
(g9
S'\xd0\x96\x8aA'
tRp128
ag7
(g9
S'\xc0S\x9cA'
tRp129
ag7
(g9
S'\xe6\xcb\xadA'
tRp130
ag7
(g9
S'\xb6\x1d\xbfA'
tRp131
ag7
(g9
S'\x94\x1a\xd2A'
tRp132
ag7
(g9
S'nw\xe6A'
tRp133
ag7
(g9
S'\xae\xc7\xfbA'
tRp134
ag7
(g9
S'im\x08B'
tRp135
ag7
(g9
S'\xf9\xa9\x12B'
tRp136
ag7
(g9
S'K\xed\x1bB'
tRp137
ag7
(g9
S'\xcf\x1a(B'
tRp138
ag7
(g9
S'\x118+B'
tRp139
ag7
(g9
S')\xf80B'
tRp140
ag7
(g9
S'\x87\xe75B'
tRp141
ag7
(g9
S'\x9dU9B'
tRp142
ag7
(g9
S'wg:B'
tRp143
ag7
(g9
S'\x05\x1e:B'
tRp144
ag7
(g9
S'\rb9B'
tRp145
ag7
(g9
S'e\x9f7B'
tRp146
ag7
(g9
S'q#4B'
tRp147
ag7
(g9
S'w\xf71B'
tRp148
ag7
(g9
S'\x95M0B'
tRp149
ag7
(g9
S'+\x96.B'
tRp150
ag7
(g9
S'\xa3\xd7,B'
tRp151
ag7
(g9
S'\xe9q*B'
tRp152
ag7
(g9
S"\xa3\x97'B"
tRp153
ag7
(g9
S'\x9b\xac$B'
tRp154
ag7
(g9
S'\x7f5\x1fB'
tRp155
ag7
(g9
S'\x0f\xb5\x1cB'
tRp156
ag7
(g9
S'/\xb0\x16B'
tRp157
ag7
(g9
S"'\x08\x0fB"
tRp158
ag7
(g9
S'\x88\n\x00B'
tRp159
ag7
(g9
S'J\x0b\xe7A'
tRp160
ag7
(g9
S'\x00^\xcbA'
tRp161
ag7
(g9
S'\xe8\xeb\xaeA'
tRp162
ag7
(g9
S'\xa8\x8a\x93A'
tRp163
ag7
(g9
S'\x90\xa4vA'
tRp164
ag7
(g9
S'\x84\x91JA'
tRp165
ag7
(g9
S'Dd&A'
tRp166
ag7
(g9
S'\x8c\x0c\x08A'
tRp167
ag7
(g9
S'@\xdd\xf3@'
tRp168
ag7
(g9
S'\x88\xc6\xb3@'
tRp169
ag7
(g9
S'0\xdb\x97@'
tRp170
ag7
(g9
S'\x18\x93\x84@'
tRp171
ag7
(g9
S'`Ll@'
tRp172
ag7
(g9
S'\xe0\xafV@'
tRp173
ag7
(g9
S'p\xa4@@'
tRp174
ag7
(g9
S'`\xdc8@'
tRp175
ag7
(g9
S'0\x1f3@'
tRp176
ag7
(g9
S'\xb0\xed.@'
tRp177
ag7
(g9
S'0\xe6+@'
tRp178
ag7
(g9
S'\xb0\xc1)@'
tRp179
ag7
(g9
S'p\t(@'
tRp180
ag7
(g9
S'\x00\x1c%@'
tRp181
ag7
(g9
S'\x00X#@'
tRp182
ag7
(g9
S'P/"@'
tRp183
ag7
(g9
S'\x00\xfc"@'
tRp184
ag7
(g9
S'\xb0\xee$@'
tRp185
ag7
(g9
S'0w"@'
tRp186
ag7
(g9
S'\xe0S$@'
tRp187
ag7
(g9
S"`@'@"
tRp188
ag7
(g9
S'p\xac+@'
tRp189
ag7
(g9
S'\x10\x044@'
tRp190
ag7
(g9
S'\xa0\x96C@'
tRp191
ag7
(g9
S'\x10.g@'
tRp192
ag7
(g9
S'\x88\x03\x83@'
tRp193
ag7
(g9
S'\xb0v\x8c@'
tRp194
ag7
(g9
S'@\xd4\xb3@'
tRp195
ag7
(g9
S'\x18W\xc6@'
tRp196
ag7
(g9
S'|N\x03A'
tRp197
ag7
(g9
S'h\x1f\x0fA'
tRp198
ag7
(g9
S'\x107(A'
tRp199
ag7
(g9
S'\xb0]BA'
tRp200
ag7
(g9
S'\xc8\xd9]A'
tRp201
ag7
(g9
S'\xec\xa6yA'
tRp202
ag7
(g9
S'P\xe6\x8bA'
tRp203
ag7
(g9
S' I\x9dA'
tRp204
ag7
(g9
S'6\x03\xafA'
tRp205
ag7
(g9
S'\xa8q\xc0A'
tRp206
ag7
(g9
S',.\xdbA'
tRp207
ag7
(g9
S'\x1e\xf9\xecA'
tRp208
ag7
(g9
S'\xe2\xbe\xfdA'
tRp209
ag7
(g9
S'\x8d\xd8\x02B'
tRp210
ag7
(g9
S'\xbb0\x12B'
tRp211
ag7
(g9
S'{\xe8\x18B'
tRp212
ag7
(g9
S'\x8b\x82\x1fB'
tRp213
ag7
(g9
S'\xe3:%B'
tRp214
ag7
(g9
S'\xf3/*B'
tRp215
ag7
(g9
S'o\x98.B'
tRp216
ag7
(g9
S'\xc1\xd32B'
tRp217
ag7
(g9
S'SP6B'
tRp218
ag7
(g9
S'aE8B'
tRp219
ag7
(g9
S'\xeb\xd18B'
tRp220
ag7
(g9
S'!\xab7B'
tRp221
ag7
(g9
S'U\xe04B'
tRp222
ag7
(g9
S'Y\xc90B'
tRp223
ag7
(g9
S'#\xba+B'
tRp224
ag7
(g9
S'\xbf\x1e%B'
tRp225
ag7
(g9
S'k\x1a\x1dB'
tRp226
ag7
(g9
S'\xe9\x83\x13B'
tRp227
ag7
(g9
S'I\xa1\x08B'
tRp228
ag7
(g9
S'\xfc\x03\xfbA'
tRp229
ag7
(g9
S'\xc8\x86\xe4A'
tRp230
ag7
(g9
S'\xdek\xcdA'
tRp231
ag7
(g9
S'\x88\x91\xa9A'
tRp232
ag7
(g9
S'\x9e&\x9eA'
tRp233
ag7
(g9
S'\xcav\x87A'
tRp234
ag7
(g9
S'<\x92QA'
tRp235
ag7
(g9
S'\x04M>A'
tRp236
ag7
(g9
S'<\x8f\x1bA'
tRp237
ag7
(g9
S'x\xd5\xfc@'
tRp238
ag7
(g9
S'@\x89\xcd@'
tRp239
ag7
(g9
S'8\xad\xab@'
tRp240
ag7
(g9
S'\x80\x06\x8b@'
tRp241
ag7
(g9
S'\x005x@'
tRp242
ag7
(g9
S'\xd0\xa1a@'
tRp243
ag7
(g9
S'\x80\xb0R@'
tRp244
ag7
(g9
S'@\x10H@'
tRp245
ag7
(g9
S'\x10\x04>@'
tRp246
ag7
(g9
S'\xb0\xc37@'
tRp247
ag7
(g9
S'P\x813@'
tRp248
ag7
(g9
S'`\x122@'
tRp249
ag7
(g9
S'\x90\xf20@'
tRp250
ag7
(g9
S'0\xaf/@'
tRp251
ag7
(g9
S'\x90\xff+@'
tRp252
ag7
(g9
S'P\xda,@'
tRp253
ag7
(g9
S'`*,@'
tRp254
ag7
(g9
S'p\xfd,@'
tRp255
ag7
(g9
S'\xa0\x9b-@'
tRp256
ag7
(g9
S'0i/@'
tRp257
ag7
(g9
S'0\x1e-@'
tRp258
ag7
(g9
S'`u.@'
tRp259
ag7
(g9
S'p\xca1@'
tRp260
ag7
(g9
S'\x00\x177@'
tRp261
ag7
(g9
S'\xd0\x96;@'
tRp262
ag7
(g9
S'pW:@'
tRp263
ag7
(g9
S'0n>@'
tRp264
ag7
(g9
S'\xb0\x18M@'
tRp265
ag7
(g9
S'\xb0=e@'
tRp266
ag7
(g9
S'`a\x86@'
tRp267
ag7
(g9
S'\xe8B\xac@'
tRp268
ag7
(g9
S'h\x98\xc9@'
tRp269
ag7
(g9
S'\xc8g\xeb@'
tRp270
ag7
(g9
S'\xcc\xe6\x18A'
tRp271
ag7
(g9
S'\xd4_3A'
tRp272
ag7
(g9
S'\x04\x8cPA'
tRp273
ag7
(g9
S'lU`A'
tRp274
ag7
(g9
S'z!\x87A'
tRp275
ag7
(g9
S'`+\x98A'
tRp276
ag7
(g9
S'\x84y\xaaA'
tRp277
ag7
(g9
S'\x06\xce\xbdA'
tRp278
ag7
(g9
S'\x9eV\xd1A'
tRp279
ag7
(g9
S'\xb2\x9d\xe4A'
tRp280
ag7
(g9
S'.\xd0\xf6A'
tRp281
ag7
(g9
S'3\xfc\x03B'
tRp282
ag7
(g9
S'\xd9\xdf\x0bB'
tRp283
ag7
(g9
S'\x0f\x1a\x17B'
tRp284
ag7
(g9
S'c^\x1aB'
tRp285
ag7
(g9
S';e!B'
tRp286
ag7
(g9
S'\xa7\x13,B'
tRp287
ag7
(g9
S'W\xf02B'
tRp288
ag7
(g9
S'Sg9B'
tRp289
ag7
(g9
S'\xeb\x9d>B'
tRp290
ag7
(g9
S'\xcd\xc9BB'
tRp291
ag7
(g9
S'\x99vEB'
tRp292
ag7
(g9
S'M\x81GB'
tRp293
ag7
(g9
S'\xc9\xbeGB'
tRp294
ag7
(g9
S'\x0f\xc6EB'
tRp295
ag7
(g9
S'I\xb9AB'
tRp296
ag7
(g9
S'\xdb\xf1;B'
tRp297
ag7
(g9
S'3\x968B'
tRp298
ag7
(g9
S'\xc5Y1B'
tRp299
ag7
(g9
S'a\xa9%B'
tRp300
ag7
(g9
S'\x0b\xe8\x1bB'
tRp301
ag7
(g9
S'\xbf\xf8\x11B'
tRp302
ag7
(g9
S'Y\xf1\x02B'
tRp303
ag7
(g9
S'P \xefA'
tRp304
ag7
(g9
S'\x82\xda\xd3A'
tRp305
ag7
(g9
S'\x163\xb7A'
tRp306
ag7
(g9
S'\xd4\x99\x99A'
tRp307
ag7
(g9
S'\xc8\xda{A'
tRp308
ag7
(g9
S'\x18=KA'
tRp309
ag7
(g9
S'\x984#A'
tRp310
ag7
(g9
S'x\xf2\x12A'
tRp311
ag7
(g9
S'X\x1c\xd6@'
tRp312
ag7
(g9
S' M\xb0@'
tRp313
ag7
(g9
S'\xd0p\x93@'
tRp314
ag7
(g9
S'\x90\xd5\x89@'
tRp315
ag7
(g9
S'0\x08s@'
tRp316
ag7
(g9
S'\xa0yO@'
tRp317
ag7
(g9
S'\x00\xf8?@'
tRp318
ag7
(g9
S'\xd0\xee2@'
tRp319
ag7
(g9
S'\xb0\x10*@'
tRp320
ag7
(g9
S'0#&@'
tRp321
ag7
(g9
S'\xf0\x9b%@'
tRp322
ag7
(g9
S'\xa06$@'
tRp323
ag7
(g9
S'p\xdc @'
tRp324
ag7
(g9
S'\xd0c\x1f@'
tRp325
ag7
(g9
S'p\x90\x1c@'
tRp326
ag7
(g9
S'\xf0C\x1d@'
tRp327
ag7
(g9
S'\x90.\x1f@'
tRp328
ag7
(g9
S'\x80\xf7\x1e@'
tRp329
ag7
(g9
S'`\xc7"@'
tRp330
ag7
(g9
S'0_"@'
tRp331
ag7
(g9
S'pd\x1e@'
tRp332
ag7
(g9
S'\xb0D\x1c@'
tRp333
ag7
(g9
S'`\xb5\x1b@'
tRp334
ag7
(g9
S'`L\x1e@'
tRp335
ag7
(g9
S'\x00\x14!@'
tRp336
ag7
(g9
S'\x90\'"@'
tRp337
ag7
(g9
S'\xf0\xf2\x1f@'
tRp338
ag7
(g9
S'PM\x1f@'
tRp339
ag7
(g9
S'p\t#@'
tRp340
ag7
(g9
S'\xf0D4@'
tRp341
ag7
(g9
S' \x85F@'
tRp342
ag7
(g9
S'\xc0l\\@'
tRp343
ag7
(g9
S'\xa0&{@'
tRp344
ag7
(g9
S'\x98\xbf\x86@'
tRp345
ag7
(g9
S'\xd0P\xa4@'
tRp346
ag7
(g9
S'\xb0,\xd0@'
tRp347
ag7
(g9
S'\xb4\xbc\x03A'
tRp348
ag7
(g9
S'\x18\x913A'
tRp349
ag7
(g9
S'p\xc9TA'
tRp350
ag7
(g9
S'\xd4\xcfxA'
tRp351
ag7
(g9
S'"4\x86A'
tRp352
ag7
(g9
S'\xb2\xe8\x99A'
tRp353
ag7
(g9
S'B1\xb5A'
tRp354
ag7
(g9
S'\xa6\xb7\xc5A'
tRp355
ag7
(g9
S'j*\xd6A'
tRp356
ag7
(g9
S':)\xe6A'
tRp357
ag7
(g9
S'h\xa5\xfcA'
tRp358
ag7
(g9
S'\x89\x07\x02B'
tRp359
ag7
(g9
S'\x9fF\tB'
tRp360
ag7
(g9
S'\x8b`\x14B'
tRp361
ag7
(g9
S'/\xf4\x17B'
tRp362
ag7
(g9
S'/\x1d"B'
tRp363
ag7
(g9
S"\x99\xb3'B"
tRp364
ag7
(g9
S'\td*B'
tRp365
ag7
(g9
S'\xfb}0B'
tRp366
ag7
(g9
S'\x9fv4B'
tRp367
ag7
(g9
S'\xf1\x0b8B'
tRp368
ag7
(g9
S'\xc9\xfa9B'
tRp369
ag7
(g9
S'\xc3\xb39B'
tRp370
ag7
(g9
S'\xb3\x008B'
tRp371
ag7
(g9
S'\xb1K6B'
tRp372
ag7
(g9
S'c\xbd2B'
tRp373
ag7
(g9
S'\x99\xe6)B'
tRp374
ag7
(g9
S']\xaf#B'
tRp375
ag7
(g9
S'\x89\xe8\x1fB'
tRp376
ag7
(g9
S'\xc5\xcf\x17B'
tRp377
ag7
(g9
S'I\xcd\x0eB'
tRp378
ag7
(g9
S'\xedk\x01B'
tRp379
ag7
(g9
S'F\x0e\xf0A'
tRp380
ag7
(g9
S' #\xdaA'
tRp381
ag7
(g9
S'^\xf2\xc0A'
tRp382
ag7
(g9
S'\xb4\x90\xa6A'
tRp383
ag7
(g9
S'v\xde\x8bA'
tRp384
ag7
(g9
S'\x8c\xe4}A'
tRp385
ag7
(g9
S'\xc4\x869A'
tRp386
ag7
(g9
S'\x80@\x13A'
tRp387
ag7
(g9
S'\xd0\x81\xed@'
tRp388
ag7
(g9
S'\x18\xd0\xd7@'
tRp389
ag7
(g9
S'\xd8\xc0\xa1@'
tRp390
ag7
(g9
S'\xe0\x9e\x93@'
tRp391
ag7
(g9
S'\xb0\x15m@'
tRp392
ag7
(g9
S'`|P@'
tRp393
ag7
(g9
S'\xc0\xf2=@'
tRp394
ag7
(g9
S'\x90_4@'
tRp395
ag7
(g9
S'\xb0\xe8,@'
tRp396
ag7
(g9
S'0\x84(@'
tRp397
ag7
(g9
S'\xe0\xb8"@'
tRp398
ag7
(g9
S'\xb0\x14\x1e@'
tRp399
ag7
(g9
S'`\xd0\x19@'
tRp400
ag7
(g9
S'\xb0\xfd\x17@'
tRp401
ag7
(g9
S'\xe0\xd4\x16@'
tRp402
ag7
(g9
S'\xd0\xeb\x19@'
tRp403
ag7
(g9
S'\x90\xcd\x1b@'
tRp404
ag7
(g9
S'\xe0\xe6\x18@'
tRp405
ag7
(g9
S'\xd0\xbe\x16@'
tRp406
ag7
(g9
S'\x90\xbc\x15@'
tRp407
ag7
(g9
S'`\x91\x16@'
tRp408
ag7
(g9
S'\xb0\x8d\x18@'
tRp409
ag7
(g9
S'\xb0L\x1a@'
tRp410
ag7
(g9
S'\xa0\x0e\x19@'
tRp411
ag7
(g9
S'\x000\x19@'
tRp412
ag7
(g9
S'\xe0W\x19@'
tRp413
ag7
(g9
S'P]\x19@'
tRp414
ag7
(g9
S'@\x0b\x1a@'
tRp415
ag7
(g9
S'@d\x19@'
tRp416
ag7
(g9
S'\xe0%\x1b@'
tRp417
ag7
(g9
S'\x80\xae\x1b@'
tRp418
ag7
(g9
S'\x00\xf4\x1c@'
tRp419
ag7
(g9
S'\xe0\xc6\x1c@'
tRp420
ag7
(g9
S'\xb0\x8e\x19@'
tRp421
ag7
(g9
S'\xa0\xaa\x17@'
tRp422
ag7
(g9
S'\x10\x15\x18@'
tRp423
ag7
(g9
S'\xa0;\x1f@'
tRp424
ag7
(g9
S'0\xc0B@'
tRp425
ag7
(g9
S'\xe0\xadj@'
tRp426
ag7
(g9
S'0\xb0w@'
tRp427
ag7
(g9
S'\xd0\x01\x95@'
tRp428
ag7
(g9
S'xH\xb6@'
tRp429
ag7
(g9
S'\x90l\xe6@'
tRp430
ag7
(g9
S'\x0cY\x0eA'
tRp431
ag7
(g9
S'\xec\xc5,A'
tRp432
ag7
(g9
S'\x8c\xb1LA'
tRp433
ag7
(g9
S'\xb4\xe9lA'
tRp434
ag7
(g9
S'\x8e*\x91A'
tRp435
ag7
(g9
S'`\xc3\x99A'
tRp436
ag7
(g9
S'\xb2\x91\xb2A'
tRp437
ag7
(g9
S'8h\xbaA'
tRp438
ag7
(g9
S'\x1a|\xc7A'
tRp439
ag7
(g9
S'\xeeA\xd6A'
tRp440
ag7
(g9
S'R\xe1\xdcA'
tRp441
ag7
(g9
S'\xe4\xe9\xdeA'
tRp442
ag7
(g9
S'\x94v\xe1A'
tRp443
ag7
(g9
S'\x8e\\\xe5A'
tRp444
ag7
(g9
S'^$\xe7A'
tRp445
ag7
(g9
S'\xde\xf2\xefA'
tRp446
ag7
(g9
S'\xb6\x95\xf8A'
tRp447
ag7
(g9
S'_\xa8\x01B'
tRp448
ag7
(g9
S'\xdd\xd5\x07B'
tRp449
ag7
(g9
S'\t\x8e\x0eB'
tRp450
ag7
(g9
S'{\xf8\x14B'
tRp451
ag7
(g9
S'c\xcf\x1cB'
tRp452
ag7
(g9
S'\x0b\x9d B'
tRp453
ag7
(g9
S'ih"B'
tRp454
ag7
(g9
S'G:"B'
tRp455
ag7
(g9
S'\xe3\xc7 B'
tRp456
ag7
(g9
S'{\x9a\x1dB'
tRp457
ag7
(g9
S'\x91o\x18B'
tRp458
ag7
(g9
S'\xab\x05\x11B'
tRp459
ag7
(g9
S'\xe1q\x07B'
tRp460
ag7
(g9
S'\x12\xd0\xf9A'
tRp461
ag7
(g9
S'\xf0<\xe2A'
tRp462
ag7
(g9
S'\xfe5\xc9A'
tRp463
ag7
(g9
S'\xfa0\xafA'
tRp464
ag7
(g9
S'L\xa1\x95A'
tRp465
ag7
(g9
S'\xcc\xe5{A'
tRp466
ag7
(g9
S'\xf0\x16SA'
tRp467
ag7
(g9
S'\x88o"A'
tRp468
ag7
(g9
S'8\x83\tA'
tRp469
ag7
(g9
S'\xc0\x03\xea@'
tRp470
ag7
(g9
S'\xf8\\\xd7@'
tRp471
ag7
(g9
S'\xa0y\xaa@'
tRp472
ag7
(g9
S'\xd8\xac\x9c@'
tRp473
ag7
(g9
S'(\xe1\x88@'
tRp474
ag7
(g9
S'@{t@'
tRp475
ag7
(g9
S'P\x8c\\@'
tRp476
ag7
(g9
S'p\x86M@'
tRp477
ag7
(g9
S'0\x85A@'
tRp478
ag7
(g9
S'\xb0I;@'
tRp479
ag7
(g9
S'\xc0\xd36@'
tRp480
ag7
(g9
S'0\xea0@'
tRp481
ag7
(g9
S'\x10\x9a+@'
tRp482
ag7
(g9
S'\xc0\x81)@'
tRp483
ag7
(g9
S'p\xa9*@'
tRp484
ag7
(g9
S'\x00.*@'
tRp485
ag7
(g9
S'\xe0\x16+@'
tRp486
ag7
(g9
S'P\x1c+@'
tRp487
ag7
(g9
S'\xf0\xfb*@'
tRp488
ag7
(g9
S'\xe0\x84*@'
tRp489
ag7
(g9
S'p\xcb(@'
tRp490
ag7
(g9
S'06*@'
tRp491
ag7
(g9
S'\x90Y*@'
tRp492
ag7
(g9
S'P\xaf)@'
tRp493
ag7
(g9
S'`\xaf)@'
tRp494
ag7
(g9
S'0#*@'
tRp495
ag7
(g9
S"\xe0\xee'@"
tRp496
ag7
(g9
S' q(@'
tRp497
ag7
(g9
S' \xb4)@'
tRp498
ag7
(g9
S'\x80|,@'
tRp499
ag7
(g9
S' \xc3,@'
tRp500
ag7
(g9
S'\xa0\n-@'
tRp501
ag7
(g9
S'@i+@'
tRp502
ag7
(g9
S'0\xf07@'
tRp503
ag7
(g9
S'\x00qO@'
tRp504
ag7
(g9
S'P;j@'
tRp505
ag7
(g9
S'\x90\xac\x7f@'
tRp506
ag7
(g9
S'x\xe5\x8f@'
tRp507
ag7
(g9
S'\x00\xdf\xae@'
tRp508
ag7
(g9
S'\xf8K\xdc@'
tRp509
ag7
(g9
S'\xe4T\nA'
tRp510
ag7
(g9
S'T\xae+A'
tRp511
ag7
(g9
S'\x0c}OA'
tRp512
ag7
(g9
S'\x9eA\x82A'
tRp513
ag7
(g9
S'<~\x8aA'
tRp514
ag7
(g9
S'\xf0\x05\x9bA'
tRp515
ag7
(g9
S'\xc6\x81\xacA'
tRp516
ag7
(g9
S'\xc4\xef\xbfA'
tRp517
ag7
(g9
S'j\xba\xd3A'
tRp518
ag7
(g9
S'\xf6s\xf3A'
tRp519
ag7
(g9
S'\xc1n\x03B'
tRp520
ag7
(g9
S'Ig\x0cB'
tRp521
ag7
(g9
S'\xc5.\x14B'
tRp522
ag7
(g9
S'\xa1\xc2\x1dB'
tRp523
ag7
(g9
S'\x15\xa5 B'
tRp524
ag7
(g9
S'\x93I%B'
tRp525
ag7
(g9
S'\x17\xed(B'
tRp526
ag7
(g9
S'\x8fM,B'
tRp527
ag7
(g9
S'ED0B'
tRp528
ag7
(g9
S'\xb163B'
tRp529
ag7
(g9
S'\xa3\xa24B'
tRp530
ag7
(g9
S'\x03T5B'
tRp531
ag7
(g9
S'I\xfe6B'
tRp532
ag7
(g9
S'\x9d\xf06B'
tRp533
ag7
(g9
S'\xfd\xa95B'
tRp534
ag7
(g9
S'\xe3\xcf2B'
tRp535
ag7
(g9
S'\x9f\x8e/B'
tRp536
ag7
(g9
S'{t-B'
tRp537
ag7
(g9
S'y\xb1(B'
tRp538
ag7
(g9
S'\x073"B'
tRp539
ag7
(g9
S'm\xd5\x19B'
tRp540
ag7
(g9
S'\x81\xa3\tB'
tRp541
ag7
(g9
S'\xa8\xe8\xfaA'
tRp542
ag7
(g9
S'`j\xe1A'
tRp543
ag7
(g9
S'L0\xc7A'
tRp544
ag7
(g9
S'\xd80\xadA'
tRp545
ag7
(g9
S'0\xc7\x92A'
tRp546
ag7
(g9
S'\xf4\x17rA'
tRp547
ag7
(g9
S'\xb4\xe00A'
tRp548
ag7
(g9
S'\xd8\xdb\x10A'
tRp549
ag7
(g9
S'85\xeb@'
tRp550
ag7
(g9
S'P\xbc\xbf@'
tRp551
ag7
(g9
S'\xf8\xb8\xa0@'
tRp552
ag7
(g9
S'@\xb2\x8c@'
tRp553
ag7
(g9
S'@E{@'
tRp554
ag7
(g9
S'Puc@'
tRp555
ag7
(g9
S'\xa0(Q@'
tRp556
ag7
(g9
S'p\x1c@@'
tRp557
ag7
(g9
S'\xa0K7@'
tRp558
ag7
(g9
S'\x90]1@'
tRp559
ag7
(g9
S'PX/@'
tRp560
ag7
(g9
S'\x10\xe21@'
tRp561
ag7
(g9
S'p\x98,@'
tRp562
ag7
(g9
S'p\xb5(@'
tRp563
ag7
(g9
S' @$@'
tRp564
ag7
(g9
S'0\xa3!@'
tRp565
ag7
(g9
S'`\x88"@'
tRp566
ag7
(g9
S'\x10o%@'
tRp567
ag7
(g9
S" \xb6'@"
tRp568
ag7
(g9
S"\x90\xb4'@"
tRp569
ag7
(g9
S' \xaf&@'
tRp570
ag7
(g9
S'\xe0\xc5#@'
tRp571
ag7
(g9
S'\x10M$@'
tRp572
ag7
(g9
S'`\x92&@'
tRp573
ag7
(g9
S'\xd0\xf5(@'
tRp574
ag7
(g9
S"\xb0\xd0'@"
tRp575
ag7
(g9
S'\xd0N*@'
tRp576
ag7
(g9
S'\xe0?&@'
tRp577
ag7
(g9
S"`\xba'@"
tRp578
ag7
(g9
S'\xc0\xa6<@'
tRp579
ag7
(g9
S'PQ_@'
tRp580
ag7
(g9
S'\xd0\xa1r@'
tRp581
ag7
(g9
S'\x90\x80~@'
tRp582
ag7
(g9
S'(\xf4\x8c@'
tRp583
ag7
(g9
S'0\x03\xa6@'
tRp584
ag7
(g9
S'`u\xcd@'
tRp585
ag7
(g9
S'h\xad\xff@'
tRp586
ag7
(g9
S'\xa4\xac\x1dA'
tRp587
ag7
(g9
S'\x9cH=A'
tRp588
ag7
(g9
S'\xe8\x10aA'
tRp589
ag7
(g9
S'\x1a3\x83A'
tRp590
ag7
(g9
S'\xd4\t\x96A'
tRp591
ag7
(g9
S'\xb8D\xa8A'
tRp592
ag7
(g9
S'DA\xc2A'
tRp593
ag7
(g9
S'\xba\r\xcaA'
tRp594
ag7
(g9
S'\xcc\x89\xd8A'
tRp595
ag7
(g9
S'\x8a\xbd\xe5A'
tRp596
ag7
(g9
S'X\xe7\xf1A'
tRp597
ag7
(g9
S'"7\xfdA'
tRp598
ag7
(g9
S'e\xd9\x03B'
tRp599
ag7
(g9
S'\xc36\tB'
tRp600
ag7
(g9
S'\x8f\xae\x11B'
tRp601
ag7
(g9
S'\xcb\xa9\x17B'
tRp602
ag7
(g9
S'\x99\xb0\x1aB'
tRp603
ag7
(g9
S'\xd3\x9b\x1fB'
tRp604
ag7
(g9
S'M\xd6#B'
tRp605
ag7
(g9
S"\xc3\x86'B"
tRp606
ag7
(g9
S'uV,B'
tRp607
ag7
(g9
S'\xff\xcf.B'
tRp608
ag7
(g9
S'-\xb60B'
tRp609
ag7
(g9
S'\xe1+2B'
tRp610
ag7
(g9
S'+\x0b3B'
tRp611
ag7
(g9
S'\x8f\xee2B'
tRp612
ag7
(g9
S';`2B'
tRp613
ag7
(g9
S'\xf9\x8d0B'
tRp614
ag7
(g9
S'\xf3\xa6/B'
tRp615
ag7
(g9
S'\x7f\xb9+B'
tRp616
ag7
(g9
S"\xcb\xd6'B"
tRp617
ag7
(g9
S'\xe1\xe9!B'
tRp618
ag7
(g9
S'=\xb5\x19B'
tRp619
ag7
(g9
S'Ya\x10B'
tRp620
ag7
(g9
S'\x01\xb0\x05B'
tRp621
ag7
(g9
S'r!\xf4A'
tRp622
ag7
(g9
S'\xc4\xda\xdaA'
tRp623
ag7
(g9
S'\x16\x02\xc0A'
tRp624
ag7
(g9
S'\x0eN\xa6A'
tRp625
ag7
(g9
S'\xfe\xd6\x8dA'
tRp626
ag7
(g9
S'\x84\x14mA'
tRp627
ag7
(g9
S'\xb8\xdcAA'
tRp628
ag7
(g9
S'$n\x1dA'
tRp629
ag7
(g9
S'@\xd5\xff@'
tRp630
ag7
(g9
S'p\x0b\xd2@'
tRp631
ag7
(g9
S'P\xf3\xae@'
tRp632
ag7
(g9
S'\x88\xe4\x95@'
tRp633
ag7
(g9
S'\xf8\x14\x82@'
tRp634
ag7
(g9
S'\x80\xb9b@'
tRp635
ag7
(g9
S'@\x0eM@'
tRp636
ag7
(g9
S'\x10\xa2=@'
tRp637
ag7
(g9
S'\x00\x944@'
tRp638
ag7
(g9
S'0\x11/@'
tRp639
ag7
(g9
S'\xa0\x19)@'
tRp640
ag7
(g9
S'\x80\xe7$@'
tRp641
ag7
(g9
S'\xf0r @'
tRp642
ag7
(g9
S'\xb0Y\x1f@'
tRp643
ag7
(g9
S'0\xf3\x1e@'
tRp644
ag7
(g9
S'\xe0h\x1e@'
tRp645
ag7
(g9
S'\x90\xc6\x1f@'
tRp646
ag7
(g9
S'\x10\xaa @'
tRp647
ag7
(g9
S'\xe0\xc6\x1c@'
tRp648
ag7
(g9
S' o\x1b@'
tRp649
ag7
(g9
S'\x90.\x1a@'
tRp650
ag7
(g9
S'\xd0\x99\x1a@'
tRp651
ag7
(g9
S'\xe01\x1e@'
tRp652
ag7
(g9
S'\xc07\x1d@'
tRp653
ag7
(g9
S'0\xb3\x1e@'
tRp654
ag7
(g9
S'P\xbb\x1b@'
tRp655
ag7
(g9
S'\xa0\x9e\x1b@'
tRp656
ag7
(g9
S'p\x1c\x1c@'
tRp657
ag7
(g9
S'P$\x1b@'
tRp658
ag7
(g9
S'\x801\x1e@'
tRp659
ag7
(g9
S'\x80+ @'
tRp660
ag7
(g9
S'\xb0-\x1e@'
tRp661
ag7
(g9
S'\x00\x95\x1d@'
tRp662
ag7
(g9
S'\xc0L\x1e@'
tRp663
ag7
(g9
S'0w*@'
tRp664
ag7
(g9
S'\x80\xf0>@'
tRp665
ag7
(g9
S'\x10iD@'
tRp666
ag7
(g9
S' \xb0[@'
tRp667
ag7
(g9
S'\x10pv@'
tRp668
ag7
(g9
S'P\x1f\x94@'
tRp669
ag7
(g9
S'H\x99\xbd@'
tRp670
ag7
(g9
S'\x88\xdb\xf6@'
tRp671
ag7
(g9
S'\x00\x03\x1fA'
tRp672
ag7
(g9
S'\xdc\xc5\\A'
tRp673
ag7
(g9
S'`B\x83A'
tRp674
ag7
(g9
S'\xbe\x8d\x98A'
tRp675
ag7
(g9
S'\x0eq\xacA'
tRp676
ag7
(g9
S'\xa6\xdc\xbeA'
tRp677
ag7
(g9
S'@.\xc7A'
tRp678
ag7
(g9
S'\xa2\xf9\xd6A'
tRp679
ag7
(g9
S'\x92\x0f\xe6A'
tRp680
ag7
(g9
S'\x04"\xfaA'
tRp681
ag7
(g9
S'_p\x00B'
tRp682
ag7
(g9
S'\xe5b\nB'
tRp683
ag7
(g9
S'\xa5C\x10B'
tRp684
ag7
(g9
S'\xebY\x15B'
tRp685
ag7
(g9
S'\xc5[\x1aB'
tRp686
ag7
(g9
S'I\x99\x1fB'
tRp687
ag7
(g9
S'q\xd5$B'
tRp688
ag7
(g9
S'7;*B'
tRp689
ag7
(g9
S'\x950/B'
tRp690
ag7
(g9
S'\xdf"4B'
tRp691
ag7
(g9
S'\xb3\xa38B'
tRp692
ag7
(g9
S'1\x18=B'
tRp693
ag7
(g9
S';\n>B'
tRp694
ag7
(g9
S'ok>B'
tRp695
ag7
(g9
S'\xb5\x1f<B'
tRp696
ag7
(g9
S'%&:B'
tRp697
ag7
(g9
S'\x9b\xbe4B'
tRp698
ag7
(g9
S'o\x82-B'
tRp699
ag7
(g9
S'\xe3\\$B'
tRp700
ag7
(g9
S'O\xba\x13B'
tRp701
ag7
(g9
S'\x95w\rB'
tRp702
ag7
(g9
S'LS\xf3A'
tRp703
ag7
(g9
S'B\xa1\xe5A'
tRp704
ag7
(g9
S'\xdc\xad\xbaA'
tRp705
ag7
(g9
S'\x0c\x8a\x9eA'
tRp706
ag7
(g9
S'0z\x83A'
tRp707
ag7
(g9
S' \xa5TA'
tRp708
ag7
(g9
S'<\x8c)A'
tRp709
ag7
(g9
S'\xec\n\x06A'
tRp710
ag7
(g9
S'\xe8\x08\xd7@'
tRp711
ag7
(g9
S'X\xa2\xb0@'
tRp712
ag7
(g9
S'\x10\xaa\x93@'
tRp713
ag7
(g9
S'pWz@'
tRp714
ag7
(g9
S'\x80\x97Z@'
tRp715
ag7
(g9
S'p\x18D@'
tRp716
ag7
(g9
S' \x9f3@'
tRp717
ag7
(g9
S'p4!@'
tRp718
ag7
(g9
S'\x90\x13\x1b@'
tRp719
ag7
(g9
S'\x90\x15\x18@'
tRp720
ag7
(g9
S'\x90\xf4\x12@'
tRp721
ag7
(g9
S'0\xf6\x10@'
tRp722
ag7
(g9
S'0v\x0e@'
tRp723
ag7
(g9
S'\x10\xd5\x0e@'
tRp724
ag7
(g9
S'\x106\x0e@'
tRp725
ag7
(g9
S'\x10\xb6\r@'
tRp726
ag7
(g9
S'P\xe2\x0c@'
tRp727
ag7
(g9
S'\xc0o\x0c@'
tRp728
ag7
(g9
S' \xa2\x0e@'
tRp729
ag7
(g9
S' m\x0f@'
tRp730
ag7
(g9
S'\x90\xf8\x0e@'
tRp731
ag7
(g9
S'`\n\r@'
tRp732
ag7
(g9
S'`\xe9\x0c@'
tRp733
ag7
(g9
S'\x10\xf8\r@'
tRp734
ag7
(g9
S'\xf0\x83\x11@'
tRp735
ag7
(g9
S'@m\x10@'
tRp736
ag7
(g9
S'\x10n\x12@'
tRp737
ag7
(g9
S'\x80\x0e\x12@'
tRp738
ag7
(g9
S'Pv\x0f@'
tRp739
ag7
(g9
S'\xc0\xb3\x0e@'
tRp740
ag7
(g9
S'\x00b\x11@'
tRp741
ag7
(g9
S'P0\x11@'
tRp742
ag7
(g9
S'`i\x16@'
tRp743
ag7
(g9
S'\x90\xf4&@'
tRp744
ag7
(g9
S'\xb0\xc8>@'
tRp745
ag7
(g9
S'\xa0\xf7W@'
tRp746
ag7
(g9
S'@\x00{@'
tRp747
ag7
(g9
S'\x18B\x9f@'
tRp748
ag7
(g9
S'0\xb2\xd0@'
tRp749
ag7
(g9
S'\xa0\xcb\x06A'
tRp750
ag7
(g9
S'\xfcc*A'
tRp751
ag7
(g9
S'\xf8\xffOA'
tRp752
ag7
(g9
S'8\rzA'
tRp753
ag7
(g9
S'\x0c\xc7\x9cA'
tRp754
ag7
(g9
S'~\xfe\xb2A'
tRp755
ag7
(g9
S'\xac\x88\xbdA'
tRp756
ag7
(g9
S'\x1a-\xddA'
tRp757
ag7
(g9
S'\xc2>\xf2A'
tRp758
ag7
(g9
S'7F\x03B'
tRp759
ag7
(g9
S')\x9b\x0cB'
tRp760
ag7
(g9
S'E)\x15B'
tRp761
ag7
(g9
S'\xc5\xcd\x1cB'
tRp762
ag7
(g9
S'\xc9\xbc#B'
tRp763
ag7
(g9
S'5\x05*B'
tRp764
ag7
(g9
S'\x97o/B'
tRp765
ag7
(g9
S'\x9b\xa84B'
tRp766
ag7
(g9
S'\xdf\x929B'
tRp767
ag7
(g9
S'\xdb\xf0>B'
tRp768
ag7
(g9
S'a\xee@B'
tRp769
ag7
(g9
S'\xa3\xdb@B'
tRp770
ag7
(g9
S'c\xe1>B'
tRp771
ag7
(g9
S'1m:B'
tRp772
ag7
(g9
S'\xcb\xe33B'
tRp773
ag7
(g9
S'\x137+B'
tRp774
ag7
(g9
S'G(!B'
tRp775
ag7
(g9
S'\x9fo\x15B'
tRp776
ag7
(g9
S'y\xad\x0fB'
tRp777
ag7
(g9
S'\x8a\x8f\xf8A'
tRp778
ag7
(g9
S'\xb6\xd5\xdbA'
tRp779
ag7
(g9
S'\xd6\x85\xbdA'
tRp780
ag7
(g9
S'\xbc\x9b\x9fA'
tRp781
ag7
(g9
S'\xdc\xed\x83A'
tRp782
ag7
(g9
S'H\xaanA'
tRp783
ag7
(g9
S'\xd0w@A'
tRp784
ag7
(g9
S'\x18\xe7\x1bA'
tRp785
ag7
(g9
S'\x98e\xe6@'
tRp786
ag7
(g9
S'0\xb2\xbb@'
tRp787
ag7
(g9
S'\x80\x12\x9b@'
tRp788
ag7
(g9
S'\x800s@'
tRp789
ag7
(g9
S'\xc0\xd9d@'
tRp790
ag7
(g9
S'\x00\x9eK@'
tRp791
ag7
(g9
S'`\xe94@'
tRp792
ag7
(g9
S'`\xe94@'
tRp793
ag7
(g9
S'P\xf6"@'
tRp794
ag7
(g9
S'P\xf6"@'
tRp795
ag7
(g9
S'\x10p\x1e@'
tRp796
ag7
(g9
S'\xd0\xc9\x16@'
tRp797
ag7
(g9
S' \x0e\x12@'
tRp798
ag7
(g9
S'\x00X\x10@'
tRp799
ag7
(g9
S'\x10\xac\x11@'
tRp800
ag7
(g9
S'\xf0\xe7\x10@'
tRp801
ag7
(g9
S'\xd0\x97\x12@'
tRp802
ag7
(g9
S'P\xec\x12@'
tRp803
ag7
(g9
S'\x00N\x12@'
tRp804
ag7
(g9
S'\xa0\xca\x0e@'
tRp805
ag7
(g9
S'p@\x0f@'
tRp806
ag7
(g9
S'\x00\x14\x11@'
tRp807
ag7
(g9
S'\x90\xe8\x13@'
tRp808
ag7
(g9
S'\xb0\x12\x12@'
tRp809
ag7
(g9
S' \x80\x13@'
tRp810
ag7
(g9
S'\xc0]\x10@'
tRp811
ag7
(g9
S'\xf0\x16\x12@'
tRp812
ag7
(g9
S'\x80\xb7\x12@'
tRp813
ag7
(g9
S'\xe0\xc9\x11@'
tRp814
ag7
(g9
S'\x00\xab\x13@'
tRp815
ag7
(g9
S'\xc0\x83\x14@'
tRp816
ag7
(g9
S'\xe0\xc1\x13@'
tRp817
ag7
(g9
S'\xf0C\x10@'
tRp818
ag7
(g9
S'@\xec\x10@'
tRp819
ag7
(g9
S'\x00\xf6\x13@'
tRp820
ag7
(g9
S'\x00\x98\x15@'
tRp821
ag7
(g9
S'`\xcb\x17@'
tRp822
ag7
(g9
S'\xb0\x8f\x1b@'
tRp823
ag7
(g9
S'0\x9d4@'
tRp824
ag7
(g9
S'p\xd5W@'
tRp825
ag7
(g9
S'\xc0z\x7f@'
tRp826
ag7
(g9
S'\xe0S\xa2@'
tRp827
ag7
(g9
S'\x18|\xdc@'
tRp828
ag7
(g9
S'\x18\xe8\x12A'
tRp829
ag7
(g9
S'\xe8f9A'
tRp830
ag7
(g9
S'tFbA'
tRp831
ag7
(g9
S'\xd0c\x8fA'
tRp832
ag7
(g9
S'\xae\xf9\x99A'
tRp833
ag7
(g9
S'X\xe2\xb7A'
tRp834
ag7
(g9
S'\xc8\xa4\xcaA'
tRp835
ag7
(g9
S'\n\x94\xdbA'
tRp836
ag7
(g9
S'*o\xecA'
tRp837
ag7
(g9
S'\xda\x87\xfcA'
tRp838
ag7
(g9
S'ar\x05B'
tRp839
ag7
(g9
S'\xab\x16\x0cB'
tRp840
ag7
(g9
S'\x0f6\x12B'
tRp841
ag7
(g9
S'\xb5\x96\x17B'
tRp842
ag7
(g9
S'\xef@\x1cB'
tRp843
ag7
(g9
S'\xfb\xf3 B'
tRp844
ag7
(g9
S'\x9bB%B'
tRp845
ag7
(g9
S'iA)B'
tRp846
ag7
(g9
S'1\xfb+B'
tRp847
ag7
(g9
S's\x12.B'
tRp848
ag7
(g9
S')&0B'
tRp849
ag7
(g9
S'\xa1\n2B'
tRp850
ag7
(g9
S'\xc7\xf52B'
tRp851
ag7
(g9
S'A\xff1B'
tRp852
ag7
(g9
S';\xd6/B'
tRp853
ag7
(g9
S'Yy,B'
tRp854
ag7
(g9
S"W\x05'B"
tRp855
ag7
(g9
S'\xa7\xc3\x1fB'
tRp856
ag7
(g9
S'%\x95\x11B'
tRp857
ag7
(g9
S'\xb3\xf3\x0bB'
tRp858
ag7
(g9
S'\xdaZ\xf4A'
tRp859
ag7
(g9
S'R\xc7\xdaA'
tRp860
ag7
(g9
S'\xf8\x1f\xceA'
tRp861
ag7
(g9
S'\x00\x13\x98A'
tRp862
ag7
(g9
S'\xdc\xef|A'
tRp863
ag7
(g9
S'(=NA'
tRp864
ag7
(g9
S'\x0c4&A'
tRp865
ag7
(g9
S'\x88\x85\x06A'
tRp866
ag7
(g9
S'\xf8\xe3\xf0@'
tRp867
ag7
(g9
S'`\xf5\xaf@'
tRp868
ag7
(g9
S'\xc0\xff\x8f@'
tRp869
ag7
(g9
S'P\x17t@'
tRp870
ag7
(g9
S'\xc0JU@'
tRp871
ag7
(g9
S'`\x1e<@'
tRp872
ag7
(g9
S'\xf0\xda*@'
tRp873
ag7
(g9
S'\xe0\x17\x1e@'
tRp874
ag7
(g9
S'P\xcc\x16@'
tRp875
ag7
(g9
S'\x10\xa8\x11@'
tRp876
ag7
(g9
S' Y\x0e@'
tRp877
ag7
(g9
S'`\xb9\x08@'
tRp878
ag7
(g9
S'\xe0O\x08@'
tRp879
ag7
(g9
S'@\xca\x05@'
tRp880
ag7
(g9
S'@f\x06@'
tRp881
ag7
(g9
S'\xd0_\x06@'
tRp882
ag7
(g9
S' \xc1\x04@'
tRp883
ag7
(g9
S'\xf0\xe5\x02@'
tRp884
ag7
(g9
S'\xc0z\x03@'
tRp885
ag7
(g9
S'\xa0>\x04@'
tRp886
ag7
(g9
S' O\x04@'
tRp887
ag7
(g9
S'@"\xff?'
tRp888
ag7
(g9
S'P\x16\x01@'
tRp889
ag7
(g9
S'\xc0\xd0\x01@'
tRp890
ag7
(g9
S'\x90\xf2\x00@'
tRp891
ag7
(g9
S'@\x84\x02@'
tRp892
ag7
(g9
S'\xc0u\x03@'
tRp893
ag7
(g9
S'\xb0\xcf\x05@'
tRp894
ag7
(g9
S' K\x06@'
tRp895
ag7
(g9
S'\xd0y\x03@'
tRp896
ag7
(g9
S'\x10\xd9\x03@'
tRp897
ag7
(g9
S'`\xc0\x05@'
tRp898
ag7
(g9
S' R\x07@'
tRp899
ag7
(g9
S'0\xde\t@'
tRp900
ag7
(g9
S'\xd0\x1d\x19@'
tRp901
ag7
(g9
S'\xd0g1@'
tRp902
ag7
(g9
S'\xb0\xf4Q@'
tRp903
ag7
(g9
S'\xb0\xe7}@'
tRp904
ag7
(g9
S'\xd8\xb2\x9d@'
tRp905
ag7
(g9
S'\xd8z\xc7@'
tRp906
ag7
(g9
S'\xd8\x81\xfb@'
tRp907
ag7
(g9
S'\xcc\x8e\x19A'
tRp908
ag7
(g9
S'\xc442A'
tRp909
ag7
(g9
S'\xdc\x9bIA'
tRp910
ag7
(g9
S'\x8c/aA'
tRp911
ag7
(g9
S'\xd8@\x84A'
tRp912
ag7
(g9
S'fn\x8bA'
tRp913
ag7
(g9
S'L\xd3\xa0A'
tRp914
ag7
(g9
S'\xba~\xb0A'
tRp915
ag7
(g9
S'\xe8\xa3\xc0A'
tRp916
ag7
(g9
S'\xc4\x8f\xcfA'
tRp917
ag7
(g9
S'\xe2\xa6\xd6A'
tRp918
ag7
(g9
S'z7\xe2A'
tRp919
ag7
(g9
S'b\x03\xebA'
tRp920
ag7
(g9
S' \x9e\xf5A'
tRp921
ag7
(g9
S'\xf0\x8f\xfbA'
tRp922
ag7
(g9
S'\xa5\xa5\x00B'
tRp923
ag7
(g9
S'\xca0\x02B'
tRp924
ag7
(g9
S'\x076\x06B'
tRp925
ag7
(g9
S']\x02\tB'
tRp926
ag7
(g9
S'G\x0f\x0cB'
tRp927
ag7
(g9
S'\xdd\xb3\x0fB'
tRp928
ag7
(g9
S'?\x8b\x13B'
tRp929
ag7
(g9
S'\xc1c\x17B'
tRp930
ag7
(g9
S'\xfdA\x1bB'
tRp931
ag7
(g9
S'\xc3]\x1fB'
tRp932
ag7
(g9
S'[\xd6#B'
tRp933
ag7
(g9
S'\x978)B'
tRp934
ag7
(g9
S'\xc5)2B'
tRp935
ag7
(g9
S'\x8dy6B'
tRp936
ag7
(g9
S'\xaf\x829B'
tRp937
ag7
(g9
S'\xb3\xd4:B'
tRp938
ag7
(g9
S'\x83N:B'
tRp939
ag7
(g9
S'\xd3\xea6B'
tRp940
ag7
(g9
S'\x7f\xa7/B'
tRp941
ag7
(g9
S'\xc5%%B'
tRp942
ag7
(g9
S'=\x9c\x18B'
tRp943
ag7
(g9
S'\x01\xbd\nB'
tRp944
ag7
(g9
S'F\xdc\xf6A'
tRp945
ag7
(g9
S'\xb2\xc1\xd6A'
tRp946
ag7
(g9
S'\\\x00\xb7A'
tRp947
ag7
(g9
S'*S\x8aA'
tRp948
ag7
(g9
S'\xb49`A'
tRp949
ag7
(g9
S'\xdcMIA'
tRp950
ag7
(g9
S'\xdc\x9b\x1eA'
tRp951
ag7
(g9
S'\x08\x9c\xf9@'
tRp952
ag7
(g9
S'\xa0^\xc5@'
tRp953
ag7
(g9
S'\xc0\xfe\x9f@'
tRp954
ag7
(g9
S'\xa0z\x84@'
tRp955
ag7
(g9
S'p\xd1P@'
tRp956
ag7
(g9
S'\x10\x119@'
tRp957
ag7
(g9
S'@\xd6$@'
tRp958
ag7
(g9
S'\xc0\xdd\x18@'
tRp959
ag7
(g9
S'\xd0h\x16@'
tRp960
ag7
(g9
S'p\xdc\r@'
tRp961
ag7
(g9
S'`\xf8\x06@'
tRp962
ag7
(g9
S'@1\x04@'
tRp963
ag7
(g9
S'`\xf5\xff?'
tRp964
ag7
(g9
S' \x18\xfd?'
tRp965
ag7
(g9
S'0l\x00@'
tRp966
ag7
(g9
S'\xc0\x17\xfe?'
tRp967
ag7
(g9
S' \xc7\xfe?'
tRp968
ag7
(g9
S'\xc0]\xf9?'
tRp969
ag7
(g9
S'\x00\x87\xf9?'
tRp970
ag7
(g9
S'\xe0\x02\xf8?'
tRp971
ag7
(g9
S'@w\xfa?'
tRp972
ag7
(g9
S'\xa0\x8f\xfb?'
tRp973
ag7
(g9
S'`\x01\xf3?'
tRp974
ag7
(g9
S'@\xb4\xf1?'
tRp975
ag7
(g9
S'\xe0D\xf3?'
tRp976
ag7
(g9
S'\x80\xce\xf5?'
tRp977
ag7
(g9
S'\x00\xd1\xf7?'
tRp978
ag7
(g9
S'`!\xfb?'
tRp979
ag7
(g9
S'\x80\xce\xfe?'
tRp980
ag7
(g9
S' ?\x00@'
tRp981
ag7
(g9
S'\x00\xc8\xfb?'
tRp982
ag7
(g9
S'\xe0\xec\xfa?'
tRp983
ag7
(g9
S'\xe0\t\xff?'
tRp984
ag7
(g9
S' \x9b\xfd?'
tRp985
ag7
(g9
S'`\xd5\x03@'
tRp986
ag7
(g9
S'\x00Z#@'
tRp987
ag7
(g9
S'\x00O>@'
tRp988
ag7
(g9
S'\x90\xe6M@'
tRp989
ag7
(g9
S' \x04d@'
tRp990
ag7
(g9
S'\xa8v\x8a@'
tRp991
ag7
(g9
S'p\x0c\xad@'
tRp992
ag7
(g9
S'\xd8\xf1\xd7@'
tRp993
ag7
(g9
S'\xac@\x06A'
tRp994
asS'adc'
p995
(lp996
F944
aF944
aF944
aF944
aF944
aF945
aF945
aF945
aF944
aF944
aF944
aF944
aF944
aF944
aF944
aF944
aF944
aF944
aF944
aF944
aF943
aF944
aF944
aF944
aF944
aF942
aF911
aF887
aF890
aF889
aF872
aF797
aF749
aF700
aF646
aF567
aF516
aF448
aF414
aF380
aF349
aF303
aF279
aF254
aF236
aF222
aF209
aF200
aF190
aF183
aF174
aF168
aF155
aF146
aF141
aF135
aF129
aF125
aF121
aF119
aF118
aF117
aF117
aF116
aF116
aF116
aF115
aF114
aF114
aF113
aF113
aF114
aF114
aF118
aF123
aF131
aF144
aF159
aF192
aF218
aF258
aF328
aF414
aF562
aF727
aF769
aF861
aF859
aF852
aF850
aF849
aF848
aF848
aF847
aF846
aF846
aF846
aF847
aF848
aF848
aF847
aF840
aF825
aF808
aF776
aF721
aF680
aF638
aF564
aF469
aF400
aF372
aF329
aF263
aF238
aF213
aF191
aF182
aF161
aF151
aF142
aF132
aF123
aF117
aF112
aF108
aF105
aF103
aF102
aF101
aF100
aF100
aF100
aF100
aF100
aF100
aF100
aF100
aF100
aF100
aF100
aF101
aF101
aF102
aF103
aF105
aF108
aF113
aF122
aF138
aF164
aF199
aF242
aF292
aF374
aF426
aF485
aF537
aF535
aF530
aF529
aF527
aF526
aF530
aF527
aF524
aF524
aF522
aF521
aF523
aF523
aF522
aF522
aF520
aF518
aF517
aF515
aF514
aF512
aF500
aF484
aF465
aF442
aF410
aF358
aF327
aF288
aF260
aF242
aF222
aF199
aF190
aF176
aF162
aF156
aF150
aF145
aF141
aF135
aF130
aF125
aF122
aF119
aF118
aF117
aF116
aF114
aF113
aF112
aF112
aF111
aF112
aF112
aF113
aF116
aF119
aF124
aF129
aF137
aF146
aF157
aF183
aF222
aF265
aF293
aF367
aF447
aF496
aF502
aF491
aF489
aF487
aF487
aF485
aF484
aF481
aF481
aF481
aF481
aF480
aF480
aF479
aF478
aF478
aF477
aF476
aF477
aF476
aF474
aF471
aF467
aF468
aF465
aF456
aF424
aF396
aF361
aF340
aF305
aF268
aF240
aF216
aF198
aF182
aF176
aF156
aF143
aF137
aF134
aF125
aF121
aF118
aF115
aF112
aF111
aF109
aF107
aF106
aF104
aF103
aF102
aF102
aF102
aF102
aF102
aF103
aF105
aF105
aF107
aF111
aF114
aF117
aF123
aF135
aF155
aF186
aF232
aF298
aF368
aF419
aF456
aF478
aF493
aF490
aF484
aF486
aF485
aF485
aF483
aF482
aF481
aF479
aF478
aF479
aF480
aF479
aF478
aF475
aF475
aF475
aF476
aF476
aF475
aF474
aF473
aF472
aF473
aF473
aF473
aF461
aF448
aF444
aF443
aF403
aF364
aF306
aF261
aF228
aF200
aF186
aF164
aF154
aF146
aF141
aF134
aF129
aF126
aF123
aF119
aF115
aF112
aF110
aF109
aF107
aF106
aF106
aF105
aF104
aF104
aF104
aF104
aF105
aF106
aF107
aF108
aF111
aF113
aF117
aF120
aF126
aF139
aF158
aF190
aF236
aF315
aF411
aF451
aF452
aF467
aF481
aF481
aF486
aF486
aF484
aF479
aF478
aF476
aF477
aF478
aF477
aF476
aF474
aF472
aF471
aF472
aF473
aF473
aF473
aF472
aF470
aF470
aF469
aF470
aF471
aF470
aF469
aF468
aF468
aF468
aF469
aF468
aF467
aF467
aF441
aF414
aF398
aF394
aF375
aF282
aF248
aF222
aF200
aF182
aF169
aF157
aF147
aF144
aF138
aF135
aF134
aF133
aF133
aF132
aF132
aF131
aF126
aF124
aF119
aF115
aF113
aF111
aF110
aF110
aF109
aF110
aF110
aF111
aF114
aF117
aF123
aF130
aF142
aF160
aF183
aF217
aF255
aF279
aF307
aF335
aF361
aF394
aF424
aF442
aF444
aF442
aF439
aF435
aF434
aF434
aF434
aF434
aF433
aF431
aF430
aF430
aF431
aF431
aF430
aF430
aF429
aF429
aF428
aF428
aF428
aF428
aF427
aF427
aF426
aF426
aF426
aF426
aF422
aF408
aF389
aF385
aF375
aF332
aF287
aF246
aF211
aF188
aF168
aF155
aF147
aF136
aF128
aF121
aF115
aF111
aF108
aF106
aF104
aF103
aF102
aF102
aF101
aF100
aF99
aF99
aF99
aF99
aF98
aF98
aF99
aF99
aF99
aF101
aF101
aF105
aF109
aF115
aF125
aF139
aF160
aF198
aF262
aF287
aF331
aF393
aF443
aF442
aF437
aF433
aF433
aF435
aF442
aF443
aF439
aF437
aF434
aF433
aF434
aF435
aF435
aF434
aF432
aF430
aF430
aF431
aF431
aF431
aF430
aF428
aF427
aF427
aF427
aF429
aF424
aF395
aF378
aF378
aF375
aF349
aF310
aF266
aF229
aF200
aF183
aF164
aF149
aF141
aF134
aF128
aF123
aF121
aF118
aF116
aF113
aF111
aF109
aF106
aF104
aF102
aF101
aF101
aF100
aF100
aF99
aF99
aF99
aF99
aF98
aF98
aF99
aF99
aF99
aF100
aF102
aF105
aF107
aF111
aF115
aF133
aF150
aF174
aF207
aF281
aF340
aF379
aF412
aF443
aF447
aF455
aF462
aF460
aF457
aF456
aF453
aF452
aF452
aF453
aF452
aF452
aF450
aF449
aF448
aF448
aF449
aF450
aF449
aF447
aF447
aF446
aF447
aF447
aF447
aF447
aF446
aF445
aF444
aF444
aF445
aF442
aF427
aF415
aF411
aF402
aF383
aF316
aF265
aF227
aF190
aF176
aF163
aF154
aF148
aF144
aF141
aF136
aF133
aF132
aF129
aF128
aF121
aF120
aF119
aF117
aF116
aF115
aF114
aF113
aF113
aF112
aF113
aF113
aF113
aF108
aF105
aF106
aF108
aF114
aF119
aF126
aF139
aF160
aF220
aF280
aF362
aF432
aF464
aF461
aF464
aF465
aF471
aF471
aF475
aF477
aF475
aF472
aF471
aF469
aF468
aF468
aF468
aF468
aF467
aF466
aF465
aF465
aF465
aF465
aF464
aF464
aF463
aF463
aF463
aF463
aF464
aF464
aF462
aF461
aF461
aF450
aF430
aF415
aF403
aF355
aF293
aF248
aF219
aF197
aF178
aF165
aF154
aF144
aF136
aF127
aF122
aF120
aF117
aF115
aF113
aF111
aF110
aF110
aF108
aF108
aF107
aF107
aF107
aF107
aF109
aF110
aF112
aF115
aF119
aF125
aF136
aF152
aF174
aF196
aF243
aF328
aF357
aF395
aF445
aF474
aF477
aF479
aF480
aF477
aF475
aF472
aF471
aF469
aF471
aF471
aF469
aF468
aF466
aF465
aF465
aF465
aF466
aF465
aF464
aF463
aF462
aF462
aF462
aF463
aF463
aF461
aF461
aF460
aF460
aF461
aF461
aF461
aF460
aF459
aF458
aF434
aF407
aF395
aF359
aF296
aF223
aF211
aF192
aF168
aF159
aF153
aF143
aF140
aF135
aF129
aF127
aF124
aF122
aF120
aF119
aF118
aF117
aF116
aF115
aF115
aF115
aF114
aF114
aF114
aF114
aF114
aF117
aF118
aF122
aF126
aF133
aF142
aF153
aF174
aF205
aF259
aF328
aF373
aF414
aF447
aF502
aF496
aF495
aF491
aF490
aF490
aF489
aF487
aF486
aF485
aF485
aF485
aF484
aF483
aF482
aF482
aF482
aF481
aF481
aF481
aF482
aF481
aF480
aF480
aF480
aF480
aF480
aF480
aF479
aF478
aF478
aF477
aF470
aF454
aF433
aF400
aF362
aF307
aF259
aF236
aF220
aF212
aF202
aF192
aF174
aF166
aF159
aF153
aF143
aF138
aF137
aF137
aF135
aF144
aF127
aF125
aF123
aF122
aF121
aF120
aF118
aF116
aF115
aF113
aF112
aF110
aF108
aF107
aF106
aF105
aF105
aF106
aF107
aF110
aF114
aF120
aF129
aF144
aF160
aF195
aF234
aF309
aF374
aF443
aF482
aF505
aF500
aF496
aF494
aF492
aF492
aF491
aF490
aF488
aF487
aF486
aF486
aF485
aF486
aF485
aF484
aF484
aF483
aF482
aF482
aF483
aF482
aF481
aF481
aF480
aF479
aF480
aF479
aF480
aF479
aF478
aF479
aF478
aF473
aF425
aF418
aF416
aF395
aF347
aF303
aF262
aF226
aF210
as.