(dp1
S'000000053'
p2
NsS'000000051'
p3
NsS'000000006'
p4
NsS'000000039'
p5
NsS'000000057'
p6
NsS'000000035'
p7
NsS'000000048'
p8
NsS'000000050'
p9
NsS'000000056'
p10
NsS'000000045'
p11
NsS'000000044'
p12
NsS'000000062'
p13
NsS'000000061'
p14
NsS'000000060'
p15
NsS'000000032'
p16
NsS'000000009'
p17
NsS'000000008'
p18
NsS'000000047'
p19
NsS'000000033'
p20
NsS'000000041'
p21
NsS'000000040'
p22
NsS'000000029'
p23
NsS'000000028'
p24
NsS'000000001'
p25
NsS'000000000'
p26
NsS'000000003'
p27
NsS'000000002'
p28
NsS'000000005'
p29
NsS'000000004'
p30
NsS'000000021'
p31
NsS'000000020'
p32
NsS'000000058'
p33
NsS'000000055'
p34
NsS'000000043'
p35
NsS'000000042'
p36
NsS'000000052'
p37
NsS'000000038'
p38
NsS'000000027'
p39
NsS'000000049'
p40
NsS'000000026'
p41
NsS'000000054'
p42
NsS'000000025'
p43
NsS'000000059'
p44
NsS'000000024'
p45
NsS'000000046'
p46
NsS'000000023'
p47
NsS'000000022'
p48
NsS'000000030'
p49
NsS'000000031'
p50
NsS'000000018'
p51
NsS'000000019'
p52
NsS'000000034'
p53
NsS'000000007'
p54
NsS'000000036'
p55
NsS'000000037'
p56
NsS'000000012'
p57
NsS'000000013'
p58
NsS'000000010'
p59
NsS'000000011'
p60
NsS'000000016'
p61
NsS'000000017'
p62
NsS'000000014'
p63
NsS'000000015'
p64
Ns.