(dp1
S'pull_up'
p2
F100
sS'contact_area'
p3
F0.00040000000000000002
sS'adc_bias'
p4
F856
sS'ft'
p5
(lp6
cnumpy.core.multiarray
scalar
p7
(cnumpy
dtype
p8
(S'f4'
I0
I1
tRp9
(I3
S'<'
NNNI-1
I-1
I0
tbS"\x00\x0c'\xbd"
tRp10
ag7
(g9
S'\x00XA\xbd'
tRp11
ag7
(g9
S'\x00\xc22\xbd'
tRp12
ag7
(g9
S'\x00\xa0F\xbd'
tRp13
ag7
(g9
S'\x00lU\xbd'
tRp14
ag7
(g9
S'\x002M\xbd'
tRp15
ag7
(g9
S'\x004L\xbd'
tRp16
ag7
(g9
S'\x00\x080\xbd'
tRp17
ag7
(g9
S'\x00.=\xbd'
tRp18
ag7
(g9
S'\x00\\Y\xbd'
tRp19
ag7
(g9
S'\x00BS\xbd'
tRp20
ag7
(g9
S'\x00\\A\xbd'
tRp21
ag7
(g9
S'\x00<a\xbd'
tRp22
ag7
(g9
S'\x00(+\xbd'
tRp23
ag7
(g9
S'\x00\x0c/\xbd'
tRp24
ag7
(g9
S'\x00h4\xbd'
tRp25
ag7
(g9
S'\x00\xa0$\xbd'
tRp26
ag7
(g9
S'\x008$\xbd'
tRp27
ag7
(g9
S'\x00|/\xbd'
tRp28
ag7
(g9
S'\x00NX\xbd'
tRp29
ag7
(g9
S'\x00\xbcI\xbd'
tRp30
ag7
(g9
S'\x00\xb8\x18\xbd'
tRp31
ag7
(g9
S'\x00(\x02\xbd'
tRp32
ag7
(g9
S'\x00:\x0b\xbd'
tRp33
ag7
(g9
S'\x00\xc0\xff\xbc'
tRp34
ag7
(g9
S'\x00\x9e \xbd'
tRp35
ag7
(g9
S'\x00x%\xbd'
tRp36
ag7
(g9
S'\x00\xe6>\xbd'
tRp37
ag7
(g9
S'\x00\x8c;\xbd'
tRp38
ag7
(g9
S'\x00\xf4\x18\xbd'
tRp39
ag7
(g9
S'\x00\x109\xbd'
tRp40
ag7
(g9
S'\x00\xd0%\xbd'
tRp41
ag7
(g9
S'\x00\xb2R\xbd'
tRp42
ag7
(g9
S'\x00\xa4E\xbd'
tRp43
ag7
(g9
S'\x00\xc4u\xbd'
tRp44
ag7
(g9
S'\x00\x14>\xbd'
tRp45
ag7
(g9
S'\x00"T\xbd'
tRp46
ag7
(g9
S'\x00\x1aR\xbd'
tRp47
ag7
(g9
S'\x00\\L\xbd'
tRp48
ag7
(g9
S'\x00\xee\x1b\xbd'
tRp49
ag7
(g9
S'\x00\xee\x0c\xbd'
tRp50
ag7
(g9
S'\x00z.\xbd'
tRp51
ag7
(g9
S'\x00V\x10\xbd'
tRp52
ag7
(g9
S'\x00N1\xbd'
tRp53
ag7
(g9
S'\x00\xc88\xbd'
tRp54
ag7
(g9
S'\x00\xf0\x16\xbd'
tRp55
ag7
(g9
S'\x00\x92\x0b\xbd'
tRp56
ag7
(g9
S'\x00\xa0\x81\xbc'
tRp57
ag7
(g9
S'\x000\xba\xbc'
tRp58
ag7
(g9
S'\x00\x18\x95\xbc'
tRp59
ag7
(g9
S'\x00b\t\xbd'
tRp60
ag7
(g9
S'\x00\x98u\xbc'
tRp61
ag7
(g9
S'\x00,\xe5<'
tRp62
ag7
(g9
S'\x80\x91\x06>'
tRp63
ag7
(g9
S'\x80<\x96>'
tRp64
ag7
(g9
S'\x80\x85\x14?'
tRp65
ag7
(g9
S'P\xf7\x88?'
tRp66
ag7
(g9
S'\xc0\xd0\xd7?'
tRp67
ag7
(g9
S'x\x7f\x18@'
tRp68
ag7
(g9
S'H\xc2J@'
tRp69
ag7
(g9
S'\x04\x1c\x85@'
tRp70
ag7
(g9
S'\xa4\n\xad@'
tRp71
ag7
(g9
S'\xdc\x14\xde@'
tRp72
ag7
(g9
S'\xfa\xde\x0bA'
tRp73
ag7
(g9
S'R\xab)A'
tRp74
ag7
(g9
S'\xde\xafFA'
tRp75
ag7
(g9
S'F#rA'
tRp76
ag7
(g9
S'9\xd8\x85A'
tRp77
ag7
(g9
S'E\xe0\x90A'
tRp78
ag7
(g9
S'\x81\xae\x95A'
tRp79
ag7
(g9
S'\x99*\x9fA'
tRp80
ag7
(g9
S'u\xa3\xa0A'
tRp81
ag7
(g9
S'W\xa7\x9dA'
tRp82
ag7
(g9
S'\x99X\x94A'
tRp83
ag7
(g9
S'\x8dX\x85A'
tRp84
ag7
(g9
S'\x1a:bA'
tRp85
ag7
(g9
S'\xce\xd44A'
tRp86
ag7
(g9
S'F\x7f\x08A'
tRp87
ag7
(g9
S'\x14\xa8\xc6@'
tRp88
ag7
(g9
S'\\\xfc\x8d@'
tRp89
ag7
(g9
S'\xc8\xd2I@'
tRp90
ag7
(g9
S'\xf8\xad\x0e@'
tRp91
ag7
(g9
S'\xf0@\xc7?'
tRp92
ag7
(g9
S'\xd0\xbe\x89?'
tRp93
ag7
(g9
S'@\x0f9?'
tRp94
ag7
(g9
S'\x00l\xf5>'
tRp95
ag7
(g9
S'\x80r\x94>'
tRp96
ag7
(g9
S'\x00\xb4\xde='
tRp97
ag7
(g9
S'\x00\x168='
tRp98
ag7
(g9
S'\x00\x8c\xad<'
tRp99
ag7
(g9
S'\x00\xd8!='
tRp100
ag7
(g9
S'\x00J!='
tRp101
ag7
(g9
S'\x00\xa3\xa6='
tRp102
ag7
(g9
S'\x00\x18C>'
tRp103
ag7
(g9
S' \x8a*?'
tRp104
ag7
(g9
S'\x00.\xb8?'
tRp105
ag7
(g9
S'x\xa6\x16@'
tRp106
ag7
(g9
S'x\x19Y@'
tRp107
ag7
(g9
S'\xa4(\x93@'
tRp108
ag7
(g9
S'\xec\x87\xc1@'
tRp109
ag7
(g9
S'\\\xaa\xf5@'
tRp110
ag7
(g9
S'\x0e"\x17A'
tRp111
ag7
(g9
S'\xeen9A'
tRp112
ag7
(g9
S'^[`A'
tRp113
ag7
(g9
S'y\xec\x84A'
tRp114
ag7
(g9
S'\x0b\xbe\x98A'
tRp115
ag7
(g9
S'\xd9\xff\xaaA'
tRp116
ag7
(g9
S'=\xd3\xbbA'
tRp117
ag7
(g9
S'\xbf\xd5\xc8A'
tRp118
ag7
(g9
S'\xd3!\xd1A'
tRp119
ag7
(g9
S'\xd1-\xd5A'
tRp120
ag7
(g9
S'\x99s\xd2A'
tRp121
ag7
(g9
S'cb\xcaA'
tRp122
ag7
(g9
S'\x95W\xbbA'
tRp123
ag7
(g9
S'\xc3\xc1\xa3A'
tRp124
ag7
(g9
S'\xb7\xfe\x87A'
tRp125
ag7
(g9
S'\n\xe2sA'
tRp126
ag7
(g9
S'\x02\x90#A'
tRp127
ag7
(g9
S'\xec\xed\xee@'
tRp128
ag7
(g9
S'Tg\xac@'
tRp129
ag7
(g9
S'h\xd7w@'
tRp130
ag7
(g9
S'\xd8O1@'
tRp131
ag7
(g9
S'0\xf5\xfb?'
tRp132
ag7
(g9
S'\x90\xa5\xb1?'
tRp133
ag7
(g9
S' \xb4y?'
tRp134
ag7
(g9
S'\xc0\xfd.?'
tRp135
ag7
(g9
S'\xc0\xad\xe8>'
tRp136
ag7
(g9
S'\x80*h>'
tRp137
ag7
(g9
S'\x80d\n>'
tRp138
ag7
(g9
S'\x00B\x9a='
tRp139
ag7
(g9
S'\x00\xe0\xbb<'
tRp140
ag7
(g9
S'\x00@\x80\xbc'
tRp141
ag7
(g9
S'\x00\x92B\xbd'
tRp142
ag7
(g9
S'\x00C\x80\xbd'
tRp143
ag7
(g9
S'\x00>=\xbd'
tRp144
ag7
(g9
S'\x00 \x99<'
tRp145
ag7
(g9
S'\x009\xd9='
tRp146
ag7
(g9
S'\x00\xa1:?'
tRp147
ag7
(g9
S'\x80\xa8\xac?'
tRp148
ag7
(g9
S'\xa8\x1b\x0b@'
tRp149
ag7
(g9
S'\xd8\xdcT@'
tRp150
ag7
(g9
S'\\\xef\x98@'
tRp151
ag7
(g9
S'L\xfc\xcb@'
tRp152
ag7
(g9
S'\xa6\xba\x01A'
tRp153
ag7
(g9
S'>\xfd A'
tRp154
ag7
(g9
S'\x82BCA'
tRp155
ag7
(g9
S'\x12\xf8fA'
tRp156
ag7
(g9
S'\xe1\x7f\x86A'
tRp157
ag7
(g9
S'\x97\xd6\x99A'
tRp158
ag7
(g9
S'C\xd9\xacA'
tRp159
ag7
(g9
S'AK\xc0A'
tRp160
ag7
(g9
S'\x89\x81\xd3A'
tRp161
ag7
(g9
S'Ml\xe6A'
tRp162
ag7
(g9
S'\xc5;\xf8A'
tRp163
ag7
(g9
S'\xf6\xeb\x07B'
tRp164
ag7
(g9
S'\xdc\x9b\rB'
tRp165
ag7
(g9
S'\x028\x11B'
tRp166
ag7
(g9
S'\xee\x84\x12B'
tRp167
ag7
(g9
S'\xacn\x11B'
tRp168
ag7
(g9
S'\xf0n\rB'
tRp169
ag7
(g9
S'\x8e3\x05B'
tRp170
ag7
(g9
S'\xe7\xa5\xf1A'
tRp171
ag7
(g9
S'\x15\xdb\xd0A'
tRp172
ag7
(g9
S';\xf4\xaaA'
tRp173
ag7
(g9
S'\xc9\x06\x84A'
tRp174
ag7
(g9
S'&\xdbCA'
tRp175
ag7
(g9
S'6&\x0eA'
tRp176
ag7
(g9
S'l\x8e\xcd@'
tRp177
ag7
(g9
S'8G|@'
tRp178
ag7
(g9
S'x\xb75@'
tRp179
ag7
(g9
S'\x88z\x1b@'
tRp180
ag7
(g9
S'\xd0\xd5\xbd?'
tRp181
ag7
(g9
S'\xc0@\x89?'
tRp182
ag7
(g9
S'@\xd5B?'
tRp183
ag7
(g9
S'`\x04\x0b?'
tRp184
ag7
(g9
S'\x80t\xc2>'
tRp185
ag7
(g9
S'\x00\x91\x91>'
tRp186
ag7
(g9
S'\x80\xe4|>'
tRp187
ag7
(g9
S'\xc0\xae\x96>'
tRp188
ag7
(g9
S'\x80T\xce>'
tRp189
ag7
(g9
S'\x00\xfdB?'
tRp190
ag7
(g9
S'p\x98\xa9?'
tRp191
ag7
(g9
S'\x10\x14\xf4?'
tRp192
ag7
(g9
S'ht+@'
tRp193
ag7
(g9
S'\xd8\xfdo@'
tRp194
ag7
(g9
S'\x84\xa2\xa3@'
tRp195
ag7
(g9
S'\xcc^\xd1@'
tRp196
ag7
(g9
S'"^\x00A'
tRp197
ag7
(g9
S'\x96Y\x1bA'
tRp198
ag7
(g9
S'\xdag:A'
tRp199
ag7
(g9
S'\xc6\xdaXA'
tRp200
ag7
(g9
S'\xf5\xd9\x80A'
tRp201
ag7
(g9
S'\xcf\x83\x8eA'
tRp202
ag7
(g9
S'\xc5\xaf\x95A'
tRp203
ag7
(g9
S'sz\xaaA'
tRp204
ag7
(g9
S'\xc1\x9c\xb7A'
tRp205
ag7
(g9
S'g\xf4\xc6A'
tRp206
ag7
(g9
S'\x01n\xd7A'
tRp207
ag7
(g9
S'\xf1P\xe7A'
tRp208
ag7
(g9
S'\x85\x7f\xf4A'
tRp209
ag7
(g9
S'\x84\x1c\x00B'
tRp210
ag7
(g9
S'\xde\xb1\x05B'
tRp211
ag7
(g9
S'\xf8O\x0bB'
tRp212
ag7
(g9
S'\x1e\xb8\x0fB'
tRp213
ag7
(g9
S'\x84\x03\x13B'
tRp214
ag7
(g9
S'r(\x16B'
tRp215
ag7
(g9
S'\x02\xb1\x19B'
tRp216
ag7
(g9
S'*\xde\x1cB'
tRp217
ag7
(g9
S'<\xd1\x1fB'
tRp218
ag7
(g9
S'\x0eQ$B'
tRp219
ag7
(g9
S"\x00n'B"
tRp220
ag7
(g9
S't\xb7(B'
tRp221
ag7
(g9
S'\xb4}+B'
tRp222
ag7
(g9
S'v\x01-B'
tRp223
ag7
(g9
S'n\xe0-B'
tRp224
ag7
(g9
S'\xce\xf92B'
tRp225
ag7
(g9
S'\x8e\xfa6B'
tRp226
ag7
(g9
S'r\xff;B'
tRp227
ag7
(g9
S'\xb0\x1f@B'
tRp228
ag7
(g9
S'\x92\x07BB'
tRp229
ag7
(g9
S'\xbe\tEB'
tRp230
ag7
(g9
S'\x80\nJB'
tRp231
ag7
(g9
S'\x02\x8dNB'
tRp232
ag7
(g9
S'\x94\x9fQB'
tRp233
ag7
(g9
S'BeTB'
tRp234
ag7
(g9
S'\x8a\xc9WB'
tRp235
ag7
(g9
S'\xf0\xbdZB'
tRp236
ag7
(g9
S' \xd5[B'
tRp237
ag7
(g9
S'\xf6J\\B'
tRp238
ag7
(g9
S'\xb6"\\B'
tRp239
ag7
(g9
S'\xdaxXB'
tRp240
ag7
(g9
S'\x04\x86SB'
tRp241
ag7
(g9
S'.\x9bMB'
tRp242
ag7
(g9
S'\x12\x01FB'
tRp243
ag7
(g9
S'\xea-<B'
tRp244
ag7
(g9
S'\x0c\xfc+B'
tRp245
ag7
(g9
S'\x86\xaa\x15B'
tRp246
ag7
(g9
S'8\x93\x00B'
tRp247
ag7
(g9
S'\xb72\xdbA'
tRp248
ag7
(g9
S'\xcf\x11\xb2A'
tRp249
ag7
(g9
S'\xad\xf2\x87A'
tRp250
ag7
(g9
S'\x92\x83HA'
tRp251
ag7
(g9
S'\xb2M\x12A'
tRp252
ag7
(g9
S'\xdc\xaa\xd4@'
tRp253
ag7
(g9
S'tI\x9a@'
tRp254
ag7
(g9
S'hn_@'
tRp255
ag7
(g9
S'X\xb0!@'
tRp256
ag7
(g9
S'@\x14\xea?'
tRp257
ag7
(g9
S'@J\xab?'
tRp258
ag7
(g9
S'\x80\x13|?'
tRp259
ag7
(g9
S'@\xeb\x1d?'
tRp260
ag7
(g9
S'\xa0\xd5\x02?'
tRp261
ag7
(g9
S'\x00\xcd\xc7>'
tRp262
ag7
(g9
S'\x00f\xb8>'
tRp263
ag7
(g9
S'\x00.\xd5>'
tRp264
ag7
(g9
S'\x80n\x1d?'
tRp265
ag7
(g9
S'\xe0\xc7c?'
tRp266
ag7
(g9
S'`\x9b\xa7?'
tRp267
ag7
(g9
S'\x98l\x00@'
tRp268
ag7
(g9
S'\x18\xcd9@'
tRp269
ag7
(g9
S'8\x06}@'
tRp270
ag7
(g9
S'd\xeb\xa8@'
tRp271
ag7
(g9
S'\xac\x81\xd7@'
tRp272
ag7
(g9
S'JO\x06A'
tRp273
ag7
(g9
S'\xb6\xe9"A'
tRp274
ag7
(g9
S'\xd2\xda>A'
tRp275
ag7
(g9
S'~\xd8]A'
tRp276
ag7
(g9
S'\xfa]}A'
tRp277
ag7
(g9
S'\x89\xf1\x8eA'
tRp278
ag7
(g9
S'_\xe6\x9dA'
tRp279
ag7
(g9
S'\xe75\xacA'
tRp280
ag7
(g9
S'\t\x1d\xbaA'
tRp281
ag7
(g9
S'_\xb9\xc8A'
tRp282
ag7
(g9
S'\x13p\xd4A'
tRp283
ag7
(g9
S'\x0b\x1a\xe5A'
tRp284
ag7
(g9
S'\xbd\x0f\xebA'
tRp285
ag7
(g9
S'q\xb6\xfcA'
tRp286
ag7
(g9
S'\xf8\t\x01B'
tRp287
ag7
(g9
S'"M\nB'
tRp288
ag7
(g9
S'\x18\x8e\rB'
tRp289
ag7
(g9
S'\x86\x8d\x17B'
tRp290
ag7
(g9
S'J\x92\x1cB'
tRp291
ag7
(g9
S' \x02!B'
tRp292
ag7
(g9
S'RN%B'
tRp293
ag7
(g9
S'\xa8T)B'
tRp294
ag7
(g9
S'8 -B'
tRp295
ag7
(g9
S'T\x1b1B'
tRp296
ag7
(g9
S'\x90\xd25B'
tRp297
ag7
(g9
S'L\xbe;B'
tRp298
ag7
(g9
S'<u@B'
tRp299
ag7
(g9
S'(\xf4DB'
tRp300
ag7
(g9
S',bHB'
tRp301
ag7
(g9
S'\xac8MB'
tRp302
ag7
(g9
S'\xeayOB'
tRp303
ag7
(g9
S'\xbeiSB'
tRp304
ag7
(g9
S'n\x1eUB'
tRp305
ag7
(g9
S'\xe0NVB'
tRp306
ag7
(g9
S'l7YB'
tRp307
ag7
(g9
S'\xfcEXB'
tRp308
ag7
(g9
S'\xca5UB'
tRp309
ag7
(g9
S'\xac\xc5QB'
tRp310
ag7
(g9
S'\x16\x02MB'
tRp311
ag7
(g9
S'x\xe5CB'
tRp312
ag7
(g9
S'~?6B'
tRp313
ag7
(g9
S'\xc6\xc1"B'
tRp314
ag7
(g9
S'\xd4\x91\nB'
tRp315
ag7
(g9
S'I6\xe1A'
tRp316
ag7
(g9
S'Um\xaeA'
tRp317
ag7
(g9
S'\x93\xae\x81A'
tRp318
ag7
(g9
S'\x96\xb0<A'
tRp319
ag7
(g9
S'\x1a\xc0\x08A'
tRp320
ag7
(g9
S'D0\xc5@'
tRp321
ag7
(g9
S'\xcc\x08\x8e@'
tRp322
ag7
(g9
S'(]0@'
tRp323
ag7
(g9
S'\xc0\xaa\xfd?'
tRp324
ag7
(g9
S'\xc0B\xd4?'
tRp325
ag7
(g9
S'`A\x92?'
tRp326
ag7
(g9
S'\x80\x131?'
tRp327
ag7
(g9
S'@\xdc\x00?'
tRp328
ag7
(g9
S'@;\xb1>'
tRp329
ag7
(g9
S'\x80zg>'
tRp330
ag7
(g9
S'\x00N3>'
tRp331
ag7
(g9
S'\x00\x19\x10>'
tRp332
ag7
(g9
S'\x00A\xa7='
tRp333
ag7
(g9
S'\x00\x00\xb6<'
tRp334
ag7
(g9
S'\x00\xa0{\xbc'
tRp335
ag7
(g9
S'\x00P\x81;'
tRp336
ag7
(g9
S'\x00(@<'
tRp337
ag7
(g9
S'\x00\x00\x83\xbb'
tRp338
ag7
(g9
S'\x00p\x8b<'
tRp339
ag7
(g9
S'\x00\xd0\xe9<'
tRp340
ag7
(g9
S'\x00x\xd3<'
tRp341
ag7
(g9
S'\x00\x00\xec\xba'
tRp342
ag7
(g9
S'\x00\xf8\x96\xbc'
tRp343
ag7
(g9
S'\x00p\xeb\xbb'
tRp344
ag7
(g9
S'\x00\xa0\x13\xbb'
tRp345
ag7
(g9
S'\x00\xe0b\xbb'
tRp346
ag7
(g9
S'\x00\xd0\xc0\xbb'
tRp347
ag7
(g9
S'\x00P\x82<'
tRp348
ag7
(g9
S'\x00\x86Q='
tRp349
ag7
(g9
S'\x00BC='
tRp350
ag7
(g9
S'\x00\xe6O='
tRp351
ag7
(g9
S'\x002\xf4='
tRp352
ag7
(g9
S'\x80\x9c\xaf>'
tRp353
ag7
(g9
S' A ?'
tRp354
ag7
(g9
S'@\x02y?'
tRp355
ag7
(g9
S'@O\xb2?'
tRp356
ag7
(g9
S'@`\x01@'
tRp357
ag7
(g9
S'\xe8\xbc?@'
tRp358
ag7
(g9
S'\x84\xab\x84@'
tRp359
ag7
(g9
S'\x14\xe9\xab@'
tRp360
ag7
(g9
S'\x94\xf3\xed@'
tRp361
ag7
(g9
S'^\x1d\x0fA'
tRp362
ag7
(g9
S'\x86\x87(A'
tRp363
ag7
(g9
S':\xe95A'
tRp364
ag7
(g9
S'\xba\xebQA'
tRp365
ag7
(g9
S'\x16\xf6yA'
tRp366
ag7
(g9
S'\x85\x91\x89A'
tRp367
ag7
(g9
S'?\xd1\x96A'
tRp368
ag7
(g9
S'\xa50\xa3A'
tRp369
ag7
(g9
S'{!\xa9A'
tRp370
ag7
(g9
S'\xaf4\xbbA'
tRp371
ag7
(g9
S'7\x97\xc7A'
tRp372
ag7
(g9
S'g\xe5\xd2A'
tRp373
ag7
(g9
S'7\xc9\xddA'
tRp374
ag7
(g9
S'\x1d%\xe9A'
tRp375
ag7
(g9
S'\x8b\x89\xf4A'
tRp376
ag7
(g9
S'\xfb\x7f\xffA'
tRp377
ag7
(g9
S'\x1e\x8b\x05B'
tRp378
ag7
(g9
S'\x84\xf5\x0bB'
tRp379
ag7
(g9
S'\xe6\xd9\x12B'
tRp380
ag7
(g9
S'j\xf4\x18B'
tRp381
ag7
(g9
S'@S\x1dB'
tRp382
ag7
(g9
S'\x0e\xa6!B'
tRp383
ag7
(g9
S'\x86m&B'
tRp384
ag7
(g9
S'\x06(+B'
tRp385
ag7
(g9
S'<f1B'
tRp386
ag7
(g9
S'\x08\xec5B'
tRp387
ag7
(g9
S'LN8B'
tRp388
ag7
(g9
S'\x9au?B'
tRp389
ag7
(g9
S'\xfe\xf2BB'
tRp390
ag7
(g9
S'\xd8\xd6EB'
tRp391
ag7
(g9
S'roHB'
tRp392
ag7
(g9
S'j\x9dIB'
tRp393
ag7
(g9
S'\xb2\x17LB'
tRp394
ag7
(g9
S'L#LB'
tRp395
ag7
(g9
S'd)LB'
tRp396
ag7
(g9
S'\x94\xd1KB'
tRp397
ag7
(g9
S'.oJB'
tRp398
ag7
(g9
S'.lGB'
tRp399
ag7
(g9
S'\xf0\x8cCB'
tRp400
ag7
(g9
S'\xc4\xb4>B'
tRp401
ag7
(g9
S'\xe2\x927B'
tRp402
ag7
(g9
S'\xce\xcc.B'
tRp403
ag7
(g9
S'j\xc7 B'
tRp404
ag7
(g9
S'\x0c\xd2\x1bB'
tRp405
ag7
(g9
S'6p\x11B'
tRp406
ag7
(g9
S'\xe4\xe2\x05B'
tRp407
ag7
(g9
S'\x87\r\xe5A'
tRp408
ag7
(g9
S'g\xd9\xd7A'
tRp409
ag7
(g9
S'\x19/\xb3A'
tRp410
ag7
(g9
S'\xd9)\x9eA'
tRp411
ag7
(g9
S'\xf3\x96\x89A'
tRp412
ag7
(g9
S'N\x87kA'
tRp413
ag7
(g9
S'\x92cIA'
tRp414
ag7
(g9
S'\xa6\xb5,A'
tRp415
ag7
(g9
S'\xc2\x13\x12A'
tRp416
ag7
(g9
S'\xb4r\xf0@'
tRp417
ag7
(g9
S'<j\xc2@'
tRp418
ag7
(g9
S'D\x96\x9d@'
tRp419
ag7
(g9
S'$\\\x81@'
tRp420
ag7
(g9
S'H\xe8S@'
tRp421
ag7
(g9
S'Xv)@'
tRp422
ag7
(g9
S'\x10j\x06@'
tRp423
ag7
(g9
S'\x10\xe7\xd2?'
tRp424
ag7
(g9
S'0y\x9e?'
tRp425
ag7
(g9
S'\xc0\x84^?'
tRp426
ag7
(g9
S'@\xc9\x19?'
tRp427
ag7
(g9
S'\xc0\xa3\xb5>'
tRp428
ag7
(g9
S'\x80 h>'
tRp429
ag7
(g9
S'\x00\x8d\x11>'
tRp430
ag7
(g9
S'\x00R\xfc='
tRp431
ag7
(g9
S'\x00\xcew='
tRp432
ag7
(g9
S'\x00\x9c\x0b='
tRp433
ag7
(g9
S'\x00 \x88;'
tRp434
ag7
(g9
S'\x00\x080\xbc'
tRp435
ag7
(g9
S'\x00\x18\x14\xbc'
tRp436
ag7
(g9
S'\x00P?\xbc'
tRp437
ag7
(g9
S'\x00\xe0\xc9\xbb'
tRp438
ag7
(g9
S'\x00\xa0\xca\xbb'
tRp439
ag7
(g9
S'\x00\x084\xbc'
tRp440
ag7
(g9
S'\x00\x94\xa1\xbc'
tRp441
ag7
(g9
S'\x00\xf0\xfb\xbc'
tRp442
ag7
(g9
S'\x00\x1c\xd1\xbc'
tRp443
ag7
(g9
S'\x00p8\xbd'
tRp444
ag7
(g9
S'\x00HS\xbd'
tRp445
ag7
(g9
S'\x00r?\xbd'
tRp446
ag7
(g9
S'\x00\xe04\xbd'
tRp447
ag7
(g9
S'\x00Zx='
tRp448
ag7
(g9
S'\x80\xb9\x0f>'
tRp449
ag7
(g9
S'\x80\xde\xba>'
tRp450
ag7
(g9
S'\x00\xe7\x02?'
tRp451
ag7
(g9
S'pe\xa7?'
tRp452
ag7
(g9
S'(\x90\n@'
tRp453
ag7
(g9
S'\xb8\x1aK@'
tRp454
ag7
(g9
S'\xf8\x83n@'
tRp455
ag7
(g9
S'\xec+\xb5@'
tRp456
ag7
(g9
S'\x94#\xe2@'
tRp457
ag7
(g9
S'B\xe5\tA'
tRp458
ag7
(g9
S'\xd6\xd6$A'
tRp459
ag7
(g9
S'\x8eI@A'
tRp460
ag7
(g9
S'VwZA'
tRp461
ag7
(g9
S'\xaeYsA'
tRp462
ag7
(g9
S'\xd7\xc1\x85A'
tRp463
ag7
(g9
S'\x95\xee\x91A'
tRp464
ag7
(g9
S'\x01\xad\xa2A'
tRp465
ag7
(g9
S'S\xd5\xa7A'
tRp466
ag7
(g9
S'\xa3\xa2\xb7A'
tRp467
ag7
(g9
S'E\xd4\xbcA'
tRp468
ag7
(g9
S')F\xc6A'
tRp469
ag7
(g9
S'\xc1\x04\xd3A'
tRp470
ag7
(g9
S'\xddM\xd7A'
tRp471
ag7
(g9
S'\xb7\xb1\xe4A'
tRp472
ag7
(g9
S'\x11\xf9\xecA'
tRp473
ag7
(g9
S'\x07\xfb\xf4A'
tRp474
ag7
(g9
S'!\x03\xfdA'
tRp475
ag7
(g9
S'\x06\xdf\x02B'
tRp476
ag7
(g9
S'\\.\x07B'
tRp477
ag7
(g9
S'N\x84\x0bB'
tRp478
ag7
(g9
S'H\x8d\x10B'
tRp479
ag7
(g9
S'\xd2\xe8\x15B'
tRp480
ag7
(g9
S'(\\\x1bB'
tRp481
ag7
(g9
S'\\\x8c!B'
tRp482
ag7
(g9
S'\xd0}&B'
tRp483
ag7
(g9
S'\xa8\xe4)B'
tRp484
ag7
(g9
S'\x86\xe8,B'
tRp485
ag7
(g9
S'\xfc20B'
tRp486
ag7
(g9
S'x\xd62B'
tRp487
ag7
(g9
S'\xfe\x854B'
tRp488
ag7
(g9
S'B.7B'
tRp489
ag7
(g9
S'\xde\xbd9B'
tRp490
ag7
(g9
S'\x8e\xca:B'
tRp491
ag7
(g9
S'\xe4\xbc=B'
tRp492
ag7
(g9
S'V\xd3@B'
tRp493
ag7
(g9
S'\xc2KDB'
tRp494
ag7
(g9
S'\x1a\xbaFB'
tRp495
ag7
(g9
S'\xbc\xcaHB'
tRp496
ag7
(g9
S'`\x05LB'
tRp497
ag7
(g9
S'vNOB'
tRp498
ag7
(g9
S'\xca\xabOB'
tRp499
ag7
(g9
S'\xd80OB'
tRp500
ag7
(g9
S'\x8a\xc6OB'
tRp501
ag7
(g9
S'\x96<PB'
tRp502
ag7
(g9
S'\xea\xd0MB'
tRp503
ag7
(g9
S'\xac\xb4LB'
tRp504
ag7
(g9
S'\xe2\xe5IB'
tRp505
ag7
(g9
S'\x8c\xc3FB'
tRp506
ag7
(g9
S'\x92\xc9AB'
tRp507
ag7
(g9
S'\x1a\xe1;B'
tRp508
ag7
(g9
S'\xc6S5B'
tRp509
ag7
(g9
S' \x00,B'
tRp510
ag7
(g9
S'h\x86!B'
tRp511
ag7
(g9
S'h\xfb\x15B'
tRp512
ag7
(g9
S'\x88$\tB'
tRp513
ag7
(g9
S'\x7f\x14\xf8A'
tRp514
ag7
(g9
S'\xab\xd3\xddA'
tRp515
ag7
(g9
S'i\xe2\xc2A'
tRp516
ag7
(g9
S'\x95\x13\xa7A'
tRp517
ag7
(g9
S'}\xed\x8aA'
tRp518
ag7
(g9
S'\xb6\xec`A'
tRp519
ag7
(g9
S'\x06\xbd1A'
tRp520
ag7
(g9
S'B7\tA'
tRp521
ag7
(g9
S'\x8c\xa2\xce@'
tRp522
ag7
(g9
S'\xf4Q\x97@'
tRp523
ag7
(g9
S'\x18&Y@'
tRp524
ag7
(g9
S'\xb8B\x1b@'
tRp525
ag7
(g9
S'\x10\xe0\xde?'
tRp526
ag7
(g9
S'\xc0\x98\x9e?'
tRp527
ag7
(g9
S'\x00{`?'
tRp528
ag7
(g9
S' \xe8\x1d?'
tRp529
ag7
(g9
S'\xc0\xb3\xdb>'
tRp530
ag7
(g9
S'\x80\nt>'
tRp531
ag7
(g9
S'\x80}\x1b>'
tRp532
ag7
(g9
S'\x00}\xd7='
tRp533
ag7
(g9
S'\x00"\xac='
tRp534
ag7
(g9
S'\x00\x92x='
tRp535
ag7
(g9
S'\x00\xe80='
tRp536
ag7
(g9
S'\x00\xd0\xe9<'
tRp537
ag7
(g9
S'\x00\x18\xb7<'
tRp538
ag7
(g9
S'\x00\xe0\xcd<'
tRp539
ag7
(g9
S'\x00\xe0\x8b;'
tRp540
ag7
(g9
S'\x00\x90A\xbc'
tRp541
ag7
(g9
S'\x00d\xdf\xbc'
tRp542
ag7
(g9
S'\x00\x8c\xd3\xbc'
tRp543
ag7
(g9
S'\x00\xd0\x92\xbc'
tRp544
ag7
(g9
S'\x00x\x92\xbc'
tRp545
ag7
(g9
S'\x00\xbc\x9f\xbc'
tRp546
ag7
(g9
S'\x00\x04\x9c\xbc'
tRp547
ag7
(g9
S'\x00\x00\xb9\xba'
tRp548
ag7
(g9
S'\x00\xc4\xdf<'
tRp549
ag7
(g9
S'\x00B\xa6='
tRp550
ag7
(g9
S'\x00\xb3H>'
tRp551
ag7
(g9
S'\xc0M\xee>'
tRp552
ag7
(g9
S'`\xf1v?'
tRp553
ag7
(g9
S'\x00[\xa2?'
tRp554
ag7
(g9
S'\xe8\xc1\x19@'
tRp555
ag7
(g9
S'8OO@'
tRp556
ag7
(g9
S'\x9c\x9d\x85@'
tRp557
ag7
(g9
S'\xf4+\xa6@'
tRp558
ag7
(g9
S'\x84\x82\xc7@'
tRp559
ag7
(g9
S'\xa4\xa7\xe8@'
tRp560
ag7
(g9
S'\xa6\x0f\x05A'
tRp561
ag7
(g9
S'\xceD\x16A'
tRp562
ag7
(g9
S'\x06\xd3)A'
tRp563
ag7
(g9
S'\xba\x8a?A'
tRp564
ag7
(g9
S'\xe6\x80UA'
tRp565
ag7
(g9
S'\xb2\nkA'
tRp566
ag7
(g9
S'\x0e\xa4}A'
tRp567
ag7
(g9
S'!\xc7\x88A'
tRp568
ag7
(g9
S'\xb7\xe7\x98A'
tRp569
ag7
(g9
S'cU\x9eA'
tRp570
ag7
(g9
S'\x01\xf7\xacA'
tRp571
ag7
(g9
S's\xb5\xb1A'
tRp572
ag7
(g9
S'!\xf3\xc0A'
tRp573
ag7
(g9
S'\xf1\xfc\xc5A'
tRp574
ag7
(g9
S'{\x9b\xd4A'
tRp575
ag7
(g9
S'\xcb\r\xdeA'
tRp576
ag7
(g9
S'\xef\xa0\xe8A'
tRp577
ag7
(g9
S'\x01\x16\xf3A'
tRp578
ag7
(g9
S'=!\xfdA'
tRp579
ag7
(g9
S'\x98\xd0\x02B'
tRp580
ag7
(g9
S'\xa6\xbe\x07B'
tRp581
ag7
(g9
S'\xa4-\x0cB'
tRp582
ag7
(g9
S'\x8e~\x10B'
tRp583
ag7
(g9
S'\xba;\x14B'
tRp584
ag7
(g9
S'\xb8\xf6\x17B'
tRp585
ag7
(g9
S'\xa8r\x1cB'
tRp586
ag7
(g9
S'x\xa5 B'
tRp587
ag7
(g9
S'\xb8\xe5$B'
tRp588
ag7
(g9
S'`\xad(B'
tRp589
ag7
(g9
S'\n\x9f.B'
tRp590
ag7
(g9
S'\xa2\xbe2B'
tRp591
ag7
(g9
S'6\xf74B'
tRp592
ag7
(g9
S'\x94\xea9B'
tRp593
ag7
(g9
S'\xf0\xe8:B'
tRp594
ag7
(g9
S'Vm>B'
tRp595
ag7
(g9
S'\xb2\x8b@B'
tRp596
ag7
(g9
S'l\x01BB'
tRp597
ag7
(g9
S'\x92\xdeAB'
tRp598
ag7
(g9
S'f\x92BB'
tRp599
ag7
(g9
S'Z\xbdDB'
tRp600
ag7
(g9
S'\xd0\x85FB'
tRp601
ag7
(g9
S'<\xd5EB'
tRp602
ag7
(g9
S'x\xa1DB'
tRp603
ag7
(g9
S'\xc2\xffDB'
tRp604
ag7
(g9
S'\xfa\x86EB'
tRp605
ag7
(g9
S'\xbe\x17EB'
tRp606
ag7
(g9
S'\x1e\xfdCB'
tRp607
ag7
(g9
S'\xdeBDB'
tRp608
ag7
(g9
S'$\x16EB'
tRp609
ag7
(g9
S'\x9a\xe1CB'
tRp610
ag7
(g9
S'\xea\xf3BB'
tRp611
ag7
(g9
S'\x16\xbfCB'
tRp612
ag7
(g9
S'\x86\xc6CB'
tRp613
ag7
(g9
S'x\xc5BB'
tRp614
ag7
(g9
S'f\xd5@B'
tRp615
ag7
(g9
S'$\xf5>B'
tRp616
ag7
(g9
S'~\x9b<B'
tRp617
ag7
(g9
S'\x90G9B'
tRp618
ag7
(g9
S'.\xd24B'
tRp619
ag7
(g9
S'\x8a5.B'
tRp620
ag7
(g9
S'\x8a?$B'
tRp621
ag7
(g9
S'$j\x17B'
tRp622
ag7
(g9
S'2_\x08B'
tRp623
ag7
(g9
S'\xb7\xe0\xedA'
tRp624
ag7
(g9
S'\xc7\x16\xc8A'
tRp625
ag7
(g9
S'\xcb<\xa2A'
tRp626
ag7
(g9
S'^\x1b\x7fA'
tRp627
ag7
(g9
S'znBA'
tRp628
ag7
(g9
S'2\x1e\x0fA'
tRp629
ag7
(g9
S'\x8c\x9c\xcf@'
tRp630
ag7
(g9
S'\x84u\x95@'
tRp631
ag7
(g9
S'\xb8\x8cV@'
tRp632
ag7
(g9
S'\xd8\xda\x1a@'
tRp633
ag7
(g9
S'p\xed\xde?'
tRp634
ag7
(g9
S'\x90o\x87?'
tRp635
ag7
(g9
S' \xf7<?'
tRp636
ag7
(g9
S'\xe0\x98\x01?'
tRp637
ag7
(g9
S'\x008\xa9>'
tRp638
ag7
(g9
S'\x00\xe2b>'
tRp639
ag7
(g9
S'\x00\x8f\x18>'
tRp640
ag7
(g9
S'\x00\xf5\xd1='
tRp641
ag7
(g9
S'\x00R\x84='
tRp642
ag7
(g9
S'\x00\x82M='
tRp643
ag7
(g9
S'\x00R\x01='
tRp644
ag7
(g9
S'\x008\x80<'
tRp645
ag7
(g9
S'\x00\xd4\xae<'
tRp646
ag7
(g9
S'\x00\xb0Z<'
tRp647
ag7
(g9
S'\x00t\x8d<'
tRp648
ag7
(g9
S'\x00l\x9d<'
tRp649
ag7
(g9
S'\x00T\xf6<'
tRp650
ag7
(g9
S'\x00 e\xbb'
tRp651
ag7
(g9
S'\x00\x80v:'
tRp652
ag7
(g9
S'\x00@\xbb;'
tRp653
ag7
(g9
S'\x00 \x99\xbb'
tRp654
ag7
(g9
S'\x00L\xa7\xbc'
tRp655
ag7
(g9
S'\x00\xe60\xbd'
tRp656
ag7
(g9
S'\x00\x12\x14\xbd'
tRp657
ag7
(g9
S'\x00\x18\x0b\xbc'
tRp658
ag7
(g9
S'\x00\xbcP>'
tRp659
ag7
(g9
S'\xa0\xd4\r?'
tRp660
ag7
(g9
S'\x00\xe0\x9d?'
tRp661
ag7
(g9
S'\xb8\x1e\t@'
tRp662
ag7
(g9
S'\x98\x8aN@'
tRp663
ag7
(g9
S'T\xbb\x8f@'
tRp664
ag7
(g9
S'\xc4V\xbc@'
tRp665
ag7
(g9
S'\x840\xe8@'
tRp666
ag7
(g9
S'\x82\x07\tA'
tRp667
ag7
(g9
S'\x16\x8a\x1fA'
tRp668
ag7
(g9
S'\xeaV7A'
tRp669
ag7
(g9
S'\xde\\PA'
tRp670
ag7
(g9
S'\xf6\xdevA'
tRp671
ag7
(g9
S'sc\x89A'
tRp672
ag7
(g9
S'm\xfd\x97A'
tRp673
ag7
(g9
S'\x91\x03\xa7A'
tRp674
ag7
(g9
S'\xeb\xe1\xb5A'
tRp675
ag7
(g9
S'\xdb\xb4\xc3A'
tRp676
ag7
(g9
S'\x0f\x88\xd0A'
tRp677
ag7
(g9
S'\xb1\xb6\xdcA'
tRp678
ag7
(g9
S'E\x17\xe8A'
tRp679
ag7
(g9
S'\x89\xd1\xf2A'
tRp680
ag7
(g9
S'\x0b+\xfcA'
tRp681
ag7
(g9
S'h\x83\x03B'
tRp682
ag7
(g9
S'\xe2f\tB'
tRp683
ag7
(g9
S't\xb4\x0eB'
tRp684
ag7
(g9
S'P\x83\x13B'
tRp685
ag7
(g9
S'4L\x18B'
tRp686
ag7
(g9
S'\xa8C\x1dB'
tRp687
ag7
(g9
S'NJ"B'
tRp688
ag7
(g9
S'v\xfa&B'
tRp689
ag7
(g9
S'4\xe2*B'
tRp690
ag7
(g9
S'\xa0\xcc.B'
tRp691
ag7
(g9
S'`m2B'
tRp692
ag7
(g9
S'\xda\xed6B'
tRp693
ag7
(g9
S'\xb0:<B'
tRp694
ag7
(g9
S'l\x93=B'
tRp695
ag7
(g9
S'\xbcEBB'
tRp696
ag7
(g9
S'6yGB'
tRp697
ag7
(g9
S'\x8a\x99KB'
tRp698
ag7
(g9
S'\xd6xMB'
tRp699
ag7
(g9
S'$\x01OB'
tRp700
ag7
(g9
S'\x1c\x07RB'
tRp701
ag7
(g9
S'\xf6\xacTB'
tRp702
ag7
(g9
S'\xd6\x13VB'
tRp703
ag7
(g9
S'X\xeaWB'
tRp704
ag7
(g9
S'\x1a\x01[B'
tRp705
ag7
(g9
S'\xc8^]B'
tRp706
ag7
(g9
S'\xa2\x16^B'
tRp707
ag7
(g9
S'\xb8\x8f^B'
tRp708
ag7
(g9
S'>\\_B'
tRp709
ag7
(g9
S'b\xd2`B'
tRp710
ag7
(g9
S'x\x1b_B'
tRp711
ag7
(g9
S'\xc8\xb6]B'
tRp712
ag7
(g9
S'h\x9eYB'
tRp713
ag7
(g9
S'.!VB'
tRp714
ag7
(g9
S'd\xb7SB'
tRp715
ag7
(g9
S'vyIB'
tRp716
ag7
(g9
S'\x96\xc6@B'
tRp717
ag7
(g9
S'\xa4\x126B'
tRp718
ag7
(g9
S'\xea\xed)B'
tRp719
ag7
(g9
S'\x98\x12\x1cB'
tRp720
ag7
(g9
S'\x08\xba\rB'
tRp721
ag7
(g9
S'\x9d\xe5\xfeA'
tRp722
ag7
(g9
S'1\xda\xe2A'
tRp723
ag7
(g9
S'\x85\x02\xc8A'
tRp724
ag7
(g9
S'q$\xaeA'
tRp725
ag7
(g9
S'/\xe4\x95A'
tRp726
ag7
(g9
S'\xb5\xae\x80A'
tRp727
ag7
(g9
S'\x9eH]A'
tRp728
ag7
(g9
S'B\xce<A'
tRp729
ag7
(g9
S'V\x88 A'
tRp730
ag7
(g9
S'\xc2b\x07A'
tRp731
ag7
(g9
S'\x1ch\xe4@'
tRp732
ag7
(g9
S'|\xc8\xc1@'
tRp733
ag7
(g9
S'tn\x95@'
tRp734
ag7
(g9
S"\xd4'\x88@"
tRp735
ag7
(g9
S'\xb8rF@'
tRp736
ag7
(g9
S'h\xae0@'
tRp737
ag7
(g9
S'\x10\x18\xfa?'
tRp738
ag7
(g9
S'\xa0k\xc4?'
tRp739
ag7
(g9
S'\xb0r\x90?'
tRp740
ag7
(g9
S'\x80\xd7G?'
tRp741
ag7
(g9
S'\x80\xbf\x06?'
tRp742
ag7
(g9
S'\xc0\xb0\xa2>'
tRp743
ag7
(g9
S'\x80X\x19>'
tRp744
ag7
(g9
S"\x00\xa0'<"
tRp745
ag7
(g9
S'\x001\xab\xbd'
tRp746
ag7
(g9
S'\x80p?\xbe'
tRp747
ag7
(g9
S'\x80\xf1b\xbe'
tRp748
ag7
(g9
S'\x00\xe6t\xbe'
tRp749
asS'adc'
p750
(lp751
F856
aF857
aF856
aF856
aF856
aF857
aF856
aF856
aF856
aF856
aF856
aF856
aF855
aF856
aF856
aF856
aF856
aF856
aF856
aF856
aF856
aF856
aF855
aF855
aF856
aF856
aF855
aF855
aF855
aF855
aF855
aF856
aF856
aF856
aF856
aF856
aF855
aF855
aF856
aF855
aF856
aF855
aF855
aF856
aF855
aF855
aF855
aF855
aF856
aF856
aF854
aF853
aF846
aF831
aF767
aF710
aF655
aF592
aF530
aF435
aF364
aF290
aF251
aF221
aF203
aF184
aF176
aF168
aF165
aF164
aF167
aF174
aF201
aF248
aF373
aF561
aF834
aF904
aF902
aF897
aF896
aF893
aF890
aF890
aF890
aF888
aF887
aF883
aF881
aF879
aF878
aF870
aF825
aF713
aF622
aF554
aF478
aF403
aF336
aF283
aF229
aF189
aF165
aF147
aF137
aF126
aF122
aF120
aF120
aF122
aF125
aF135
aF159
aF228
aF345
aF517
aF767
aF891
aF894
aF890
aF889
aF888
aF884
aF881
aF880
aF881
aF880
aF878
aF879
aF879
aF878
aF878
aF877
aF873
aF859
aF791
aF720
aF659
aF555
aF468
aF371
aF308
aF263
aF215
aF188
aF164
aF147
aF130
aF122
aF110
aF101
aF97
aF92
aF89
aF88
aF88
aF88
aF90
aF95
aF107
aF133
aF197
aF363
aF671
aF882
aF910
aF898
aF895
aF893
aF891
aF888
aF887
aF888
aF886
aF883
aF880
aF868
aF858
aF825
aF735
aF692
aF629
aF528
aF428
aF376
aF324
aF285
aF232
aF199
aF187
aF172
aF158
aF142
aF136
aF127
aF112
aF105
aF100
aF97
aF95
aF92
aF89
aF87
aF86
aF85
aF83
aF82
aF81
aF80
aF78
aF77
aF77
aF76
aF75
aF72
aF70
aF68
aF67
aF67
aF65
aF63
aF63
aF62
aF61
aF60
aF60
aF60
aF60
aF60
aF61
aF62
aF63
aF65
aF68
aF83
aF110
aF130
aF176
aF377
aF640
aF818
aF905
aF900
aF897
aF894
aF893
aF892
aF889
aF887
aF887
aF885
aF883
aF868
aF845
aF834
aF778
aF699
aF612
aF524
aF454
aF379
aF320
aF265
aF238
aF202
aF180
aF160
aF149
aF137
aF130
aF118
aF113
aF110
aF105
aF98
aF95
aF89
aF84
aF81
aF78
aF77
aF76
aF75
aF74
aF72
aF70
aF67
aF65
aF64
aF64
aF63
aF61
aF60
aF60
aF60
aF59
aF59
aF60
aF61
aF61
aF63
aF66
aF77
aF102
aF155
aF291
aF664
aF923
aF912
aF923
aF919
aF912
aF903
aF909
aF911
aF908
aF898
aF897
aF898
aF897
aF893
aF892
aF894
aF896
aF893
aF891
aF890
aF890
aF889
aF887
aF887
aF890
aF889
aF887
aF886
aF886
aF886
aF885
aF883
aF883
aF883
aF854
aF833
aF800
aF754
aF709
aF580
aF502
aF422
aF368
aF314
aF275
aF246
aF210
aF189
aF174
aF161
aF147
aF139
aF131
aF120
aF115
aF110
aF104
aF98
aF95
aF91
aF85
aF81
aF77
aF76
aF74
aF73
aF71
aF69
aF68
aF66
aF64
aF63
aF62
aF62
aF61
aF61
aF61
aF61
aF61
aF61
aF61
aF62
aF63
aF64
aF67
aF69
aF72
aF78
aF85
aF96
aF112
aF132
aF146
aF168
aF204
aF252
aF272
aF321
aF413
aF510
aF557
aF583
aF608
aF683
aF723
aF765
aF815
aF868
aF870
aF864
aF862
aF862
aF861
aF860
aF859
aF858
aF856
aF855
aF855
aF854
aF853
aF852
aF852
aF853
aF852
aF851
aF851
aF851
aF851
aF844
aF840
aF829
aF802
aF756
aF643
aF551
aF482
aF413
aF346
aF298
aF255
aF226
aF205
aF188
aF176
aF161
aF149
aF142
aF135
aF127
aF121
aF116
aF112
aF107
aF103
aF99
aF97
aF93
aF90
aF86
aF84
aF79
aF76
aF74
aF71
aF70
aF70
aF69
aF68
aF67
aF67
aF67
aF66
aF65
aF64
aF63
aF62
aF61
aF61
aF59
aF59
aF59
aF59
aF59
aF59
aF59
aF59
aF59
aF60
aF61
aF63
aF65
aF69
aF73
aF81
aF90
aF102
aF119
aF152
aF210
aF287
aF395
aF534
aF688
aF810
aF877
aF898
aF893
aF887
aF883
aF882
aF881
aF879
aF878
aF876
aF874
aF873
aF872
aF871
aF870
aF869
aF870
aF869
aF870
aF869
aF868
aF867
aF868
aF867
aF867
aF864
aF863
aF861
aF846
aF788
aF711
aF630
aF560
aF516
aF456
aF400
aF362
aF331
aF298
aF271
aF233
aF214
aF196
aF185
aF176
aF160
aF146
aF139
aF134
aF124
aF117
aF112
aF107
aF102
aF96
aF92
aF89
aF87
aF84
aF81
aF79
aF78
aF76
aF74
aF71
aF70
aF68
aF67
aF66
aF64
aF64
aF63
aF63
aF62
aF61
aF61
aF61
aF60
aF60
aF61
aF60
aF60
aF60
aF60
aF60
aF60
aF60
aF60
aF60
aF60
aF60
aF60
aF60
aF60
aF61
aF62
aF63
aF67
aF74
aF83
aF102
aF141
aF194
aF324
aF471
aF760
aF898
aF904
aF901
aF895
aF889
aF887
aF886
aF886
aF884
aF882
aF882
aF881
aF880
aF879
aF878
aF877
aF876
aF876
aF875
aF873
aF872
aF873
aF873
aF872
aF871
aF871
aF871
aF871
aF868
aF860
aF832
aF738
aF629
aF530
aF461
aF372
aF326
aF299
aF270
aF239
aF212
aF192
aF174
aF153
aF135
aF125
aF115
aF109
aF104
aF99
aF95
aF92
aF90
aF84
aF80
aF78
aF76
aF74
aF72
aF69
aF68
aF67
aF65
aF64
aF63
aF62
aF62
aF60
aF58
aF58
aF58
aF58
aF57
aF56
aF56
aF56
aF55
aF54
aF54
aF54
aF53
aF53
aF54
aF54
aF54
aF55
aF56
aF58
aF60
aF64
aF70
aF77
aF87
aF99
aF112
aF137
aF163
aF195
aF221
aF259
aF300
aF359
aF398
aF419
aF478
aF532
aF615
aF674
aF730
aF732
aF790
aF864
aF884
aF883
aF894
aF913
aF913
aF911
aF907
aF906
aF905
aF904
as.