(dp1
S'pull_up'
p2
F100
sS'contact_area'
p3
F0.00040000000000000002
sS'adc_bias'
p4
F930
sS'ft'
p5
(lp6
cnumpy.core.multiarray
scalar
p7
(cnumpy
dtype
p8
(S'f4'
I0
I1
tRp9
(I3
S'<'
NNNI-1
I-1
I0
tbS'\x00x\x05<'
tRp10
ag7
(g9
S'\x00 m\xbb'
tRp11
ag7
(g9
S'\x00P\x7f\xbc'
tRp12
ag7
(g9
S'\x00\xd8\xad\xbc'
tRp13
ag7
(g9
S'\x00x\x13\xbc'
tRp14
ag7
(g9
S'\x00\xb09<'
tRp15
ag7
(g9
S'\x00\x80r;'
tRp16
ag7
(g9
S'\x00\xa0\x92\xbc'
tRp17
ag7
(g9
S'\x00\xac\xf1\xbc'
tRp18
ag7
(g9
S'\x00\x90m\xbc'
tRp19
ag7
(g9
S'\x00\x10\xc0;'
tRp20
ag7
(g9
S'\x00\xe0\x17<'
tRp21
ag7
(g9
S'\x00@\x1d;'
tRp22
ag7
(g9
S'\x00 \xfd\xbc'
tRp23
ag7
(g9
S'\x00$\xd2\xbc'
tRp24
ag7
(g9
S'\x00(\xd8\xbc'
tRp25
ag7
(g9
S'\x00\xd0\xe2\xbc'
tRp26
ag7
(g9
S'\x00\xfc\x91\xbc'
tRp27
ag7
(g9
S'\x00\x80\x1b\xbb'
tRp28
ag7
(g9
S'\x00\xa0*\xbc'
tRp29
ag7
(g9
S'\x00\x04\xf9\xbc'
tRp30
ag7
(g9
S'\x00\x8a$\xbd'
tRp31
ag7
(g9
S'\x00\xe4\xf2\xbc'
tRp32
ag7
(g9
S'\x00\x90\x01\xbd'
tRp33
ag7
(g9
S'\x00\xc4\x91\xbc'
tRp34
ag7
(g9
S'\x00h\x19\xbd'
tRp35
ag7
(g9
S'\x00\x16%\xbd'
tRp36
ag7
(g9
S'\x00d\xc9\xbc'
tRp37
ag7
(g9
S'\x00 <;'
tRp38
ag7
(g9
S'\x00\x80^;'
tRp39
ag7
(g9
S'\x00\xf0\xe1\xbb'
tRp40
ag7
(g9
S'\x00\xec\x9e\xbc'
tRp41
ag7
(g9
S'\x00h\xcd<'
tRp42
ag7
(g9
S'\x00\xe4~='
tRp43
ag7
(g9
S'\x80_\x08>'
tRp44
ag7
(g9
S'\x80\xe7F>'
tRp45
ag7
(g9
S'\xc0\x15\x8b>'
tRp46
ag7
(g9
S'\x80\xfd\xb3>'
tRp47
ag7
(g9
S'@\xff\xe2>'
tRp48
ag7
(g9
S'@\xf5\x01?'
tRp49
ag7
(g9
S'\xe0g\x18?'
tRp50
ag7
(g9
S'\xc0\x024?'
tRp51
ag7
(g9
S'\xc0\xd1G?'
tRp52
ag7
(g9
S' \x18^?'
tRp53
ag7
(g9
S' \xcbz?'
tRp54
ag7
(g9
S'p,\x88?'
tRp55
ag7
(g9
S'0b\x96?'
tRp56
ag7
(g9
S'\xd07\xa6?'
tRp57
ag7
(g9
S'0q\xb7?'
tRp58
ag7
(g9
S'\x10U\xcc?'
tRp59
ag7
(g9
S'\xb0\xee\xe8?'
tRp60
ag7
(g9
S'H\xc3\x01@'
tRp61
ag7
(g9
S'\xf0\xc5\x0b@'
tRp62
ag7
(g9
S'p\xe4\x11@'
tRp63
ag7
(g9
S'\xb8\xd9\x17@'
tRp64
ag7
(g9
S'x\xe6\x1b@'
tRp65
ag7
(g9
S'\xb8|"@'
tRp66
ag7
(g9
S'\xc0\xd9.@'
tRp67
ag7
(g9
S'H\xe2;@'
tRp68
ag7
(g9
S'\x10\x17O@'
tRp69
ag7
(g9
S'@\xf4b@'
tRp70
ag7
(g9
S'\x80,m@'
tRp71
ag7
(g9
S'\xa8Z\x8c@'
tRp72
ag7
(g9
S'\xe0"\x9e@'
tRp73
ag7
(g9
S'P_\xb2@'
tRp74
ag7
(g9
S'h\xfa\xc7@'
tRp75
ag7
(g9
S'\xb8\xfa\xdd@'
tRp76
ag7
(g9
S'\x10+\xf4@'
tRp77
ag7
(g9
S'\xdc\x84\x04A'
tRp78
ag7
(g9
S'\xd4\\\x0eA'
tRp79
ag7
(g9
S'hc\x18A'
tRp80
ag7
(g9
S'\x04\xb2!A'
tRp81
ag7
(g9
S'\\l,A'
tRp82
ag7
(g9
S'\xa8r9A'
tRp83
ag7
(g9
S'\x8c\x01GA'
tRp84
ag7
(g9
S'\xec6TA'
tRp85
ag7
(g9
S'\xd8MaA'
tRp86
ag7
(g9
S'X\xf1tA'
tRp87
ag7
(g9
S'\x82\x01\x81A'
tRp88
ag7
(g9
S'\xceo\x84A'
tRp89
ag7
(g9
S'R)\x8bA'
tRp90
ag7
(g9
S'0\xea\x93A'
tRp91
ag7
(g9
S'\xaa\xa8\x96A'
tRp92
ag7
(g9
S'`^\x9eA'
tRp93
ag7
(g9
S'\xee\xa0\xa3A'
tRp94
ag7
(g9
S'\xc2\xea\xa8A'
tRp95
ag7
(g9
S'\x12[\xaeA'
tRp96
ag7
(g9
S'\xc0o\xb3A'
tRp97
ag7
(g9
S'\xf04\xb9A'
tRp98
ag7
(g9
S'\xf2M\xbfA'
tRp99
ag7
(g9
S'\xb2.\xc5A'
tRp100
ag7
(g9
S'\xe0\xee\xcaA'
tRp101
ag7
(g9
S'\xfe\x9b\xd0A'
tRp102
ag7
(g9
S'\xccJ\xd6A'
tRp103
ag7
(g9
S'\xf2M\xdcA'
tRp104
ag7
(g9
S'\xbes\xe2A'
tRp105
ag7
(g9
S'rp\xe7A'
tRp106
ag7
(g9
S'"z\xecA'
tRp107
ag7
(g9
S',\x92\xf3A'
tRp108
ag7
(g9
S'\x8e6\xf6A'
tRp109
ag7
(g9
S'\x9a\xe9\xf9A'
tRp110
ag7
(g9
S'\xb2\x04\x00B'
tRp111
ag7
(g9
S'=E\x02B'
tRp112
ag7
(g9
S'P\xda\x03B'
tRp113
ag7
(g9
S'7\xb8\x04B'
tRp114
ag7
(g9
S'\xb5O\x05B'
tRp115
ag7
(g9
S'j\xbb\x05B'
tRp116
ag7
(g9
S'\xd4%\x06B'
tRp117
ag7
(g9
S'I\xf9\x06B'
tRp118
ag7
(g9
S'\xf3\xdb\x07B'
tRp119
ag7
(g9
S'\xb6\x8d\x07B'
tRp120
ag7
(g9
S'A$\x07B'
tRp121
ag7
(g9
S'\xb3\x10\x07B'
tRp122
ag7
(g9
S'\xb3F\x07B'
tRp123
ag7
(g9
S'I\xff\x07B'
tRp124
ag7
(g9
S'\xad\xff\x08B'
tRp125
ag7
(g9
S'\xe5\xe8\x08B'
tRp126
ag7
(g9
S'\xc9\x01\tB'
tRp127
ag7
(g9
S'-\xf8\tB'
tRp128
ag7
(g9
S'\x95O\nB'
tRp129
ag7
(g9
S'\x1c{\nB'
tRp130
ag7
(g9
S'\xfb\x80\nB'
tRp131
ag7
(g9
S'\xfc\xa5\nB'
tRp132
ag7
(g9
S'\xb5\xb9\nB'
tRp133
ag7
(g9
S'\xbb\xc3\nB'
tRp134
ag7
(g9
S'_\x81\nB'
tRp135
ag7
(g9
S'\x9b\x05\nB'
tRp136
ag7
(g9
S'\xc2\x08\tB'
tRp137
ag7
(g9
S'=m\x07B'
tRp138
ag7
(g9
S'\x9b\x9c\x05B'
tRp139
ag7
(g9
S'\xc8\xbc\x03B'
tRp140
ag7
(g9
S'\xeb\xea\x00B'
tRp141
ag7
(g9
S'\xde\x12\xf9A'
tRp142
ag7
(g9
S'\x1cp\xe9A'
tRp143
ag7
(g9
S'\xb6\xe6\xddA'
tRp144
ag7
(g9
S'b1\xd7A'
tRp145
ag7
(g9
S'\n\x9c\xc6A'
tRp146
ag7
(g9
S'6l\xa8A'
tRp147
ag7
(g9
S'\xd4d\x92A'
tRp148
ag7
(g9
S'0"zA'
tRp149
ag7
(g9
S'\xe4\xe7QA'
tRp150
ag7
(g9
S'\x00V.A'
tRp151
ag7
(g9
S'pV\x0fA'
tRp152
ag7
(g9
S'\xe8\xf1\xe9@'
tRp153
ag7
(g9
S'`O\xbe@'
tRp154
ag7
(g9
S'(\xdb\x9b@'
tRp155
ag7
(g9
S'\xa8\x82\x81@'
tRp156
ag7
(g9
S'\xa8z\\@'
tRp157
ag7
(g9
S'hy@@'
tRp158
ag7
(g9
S'\x98\xd9*@'
tRp159
ag7
(g9
S'@\x92\x1a@'
tRp160
ag7
(g9
S'\xa0\x03\x10@'
tRp161
ag7
(g9
S' \x01\t@'
tRp162
ag7
(g9
S'\x18(\x04@'
tRp163
ag7
(g9
S'\xa0.\xfb?'
tRp164
ag7
(g9
S'`e\xfa?'
tRp165
ag7
(g9
S'\xc0=\xf5?'
tRp166
ag7
(g9
S'\xe0\xfd\xf1?'
tRp167
ag7
(g9
S'\xf0\xc1\xf1?'
tRp168
ag7
(g9
S'\xb0!\xf0?'
tRp169
ag7
(g9
S' ;\xf2?'
tRp170
ag7
(g9
S'`8\xf0?'
tRp171
ag7
(g9
S'p\x1b\xf2?'
tRp172
ag7
(g9
S'\x90\xb9\xef?'
tRp173
ag7
(g9
S'0D\xf0?'
tRp174
ag7
(g9
S'\xe0\xd1\xf6?'
tRp175
ag7
(g9
S'\xc0\xec\xf9?'
tRp176
ag7
(g9
S'\xa0G\xf8?'
tRp177
ag7
(g9
S'\xd0\x12\xf7?'
tRp178
ag7
(g9
S'\x00\xbf\xf4?'
tRp179
ag7
(g9
S'\xf0\xa8\xf4?'
tRp180
ag7
(g9
S'@\x1f\xf7?'
tRp181
ag7
(g9
S'\xb0\xbb\xf7?'
tRp182
ag7
(g9
S'pB\xf7?'
tRp183
ag7
(g9
S'\xc0\xad\xf2?'
tRp184
ag7
(g9
S'\x108\xf2?'
tRp185
ag7
(g9
S'`\xdb\xf2?'
tRp186
ag7
(g9
S'\x10v\xf4?'
tRp187
ag7
(g9
S'\x80\xd4\xf5?'
tRp188
ag7
(g9
S'\xa0E\xf8?'
tRp189
ag7
(g9
S'\x10S\xf8?'
tRp190
ag7
(g9
S'\xf0\x16\xf7?'
tRp191
ag7
(g9
S'p\x81\xfa?'
tRp192
ag7
(g9
S'\x908\xf5?'
tRp193
ag7
(g9
S'\xc0\xe8\xf8?'
tRp194
ag7
(g9
S'\xf0\x90\xfa?'
tRp195
ag7
(g9
S'\xa0\xfe\xf8?'
tRp196
ag7
(g9
S'\xe0\xb1\xf5?'
tRp197
ag7
(g9
S'\xc0\xf2\xf5?'
tRp198
ag7
(g9
S'\xb0\xe7\xf8?'
tRp199
ag7
(g9
S'\xe0Z\xfc?'
tRp200
ag7
(g9
S'8\xa7\x00@'
tRp201
ag7
(g9
S' \xb8\x00@'
tRp202
ag7
(g9
S'\xa8\x04\x00@'
tRp203
ag7
(g9
S'\xb0V\x01@'
tRp204
ag7
(g9
S'\xc8\x90\x05@'
tRp205
ag7
(g9
S'\x98\xc8\x0b@'
tRp206
ag7
(g9
S'XB\x13@'
tRp207
ag7
(g9
S'\x10I\x1d@'
tRp208
ag7
(g9
S'pu*@'
tRp209
ag7
(g9
S"8':@"
tRp210
ag7
(g9
S'XY^@'
tRp211
ag7
(g9
S'\xd0\x02\x87@'
tRp212
ag7
(g9
S' \xfb\xa1@'
tRp213
ag7
(g9
S'\x80\xe1\xbc@'
tRp214
ag7
(g9
S'@=\xd8@'
tRp215
ag7
(g9
S'@\xaa\xf4@'
tRp216
ag7
(g9
S'T-\x08A'
tRp217
ag7
(g9
S'\x90\xf0\x15A'
tRp218
ag7
(g9
S'\xbc\xf0#A'
tRp219
ag7
(g9
S'\xf4\xf51A'
tRp220
ag7
(g9
S'\xb0\x9a@A'
tRp221
ag7
(g9
S'X`PA'
tRp222
ag7
(g9
S'8kaA'
tRp223
ag7
(g9
S'|\xfesA'
tRp224
ag7
(g9
S'\x94\x05\x84A'
tRp225
ag7
(g9
S'\xee\xc9\x8dA'
tRp226
ag7
(g9
S'l\\\x96A'
tRp227
ag7
(g9
S'\xe2C\xa0A'
tRp228
ag7
(g9
S'<\xb7\xa5A'
tRp229
ag7
(g9
S'*\x02\xabA'
tRp230
ag7
(g9
S'6\x18\xb0A'
tRp231
ag7
(g9
S'\xae5\xb2A'
tRp232
ag7
(g9
S'\\\x0b\xb9A'
tRp233
ag7
(g9
S'\xec\xca\xbcA'
tRp234
ag7
(g9
S'\x10\xe6\xbfA'
tRp235
ag7
(g9
S'^\xcf\xc3A'
tRp236
ag7
(g9
S'0\x9f\xc7A'
tRp237
ag7
(g9
S'(k\xcaA'
tRp238
ag7
(g9
S'p\xd3\xcdA'
tRp239
ag7
(g9
S'\xbe\xde\xd1A'
tRp240
ag7
(g9
S'\x98f\xd5A'
tRp241
ag7
(g9
S'"\x0f\xd8A'
tRp242
ag7
(g9
S'\xd6\x95\xdaA'
tRp243
ag7
(g9
S'J\xc8\xddA'
tRp244
ag7
(g9
S'fv\xe0A'
tRp245
ag7
(g9
S' \xe3\xe2A'
tRp246
ag7
(g9
S'*\x81\xe5A'
tRp247
ag7
(g9
S'>\xef\xe6A'
tRp248
ag7
(g9
S'\xb6"\xe7A'
tRp249
ag7
(g9
S' n\xe6A'
tRp250
ag7
(g9
S'\xa2E\xe5A'
tRp251
ag7
(g9
S'\xe4\x8e\xe2A'
tRp252
ag7
(g9
S'\xa2\x91\xddA'
tRp253
ag7
(g9
S'\x00Y\xd5A'
tRp254
ag7
(g9
S'*L\xcaA'
tRp255
ag7
(g9
S'\x98c\xbdA'
tRp256
asS'adc'
p257
(lp258
F929
aF929
aF929
aF930
aF929
aF929
aF929
aF929
aF929
aF929
aF929
aF929
aF929
aF930
aF929
aF929
aF929
aF929
aF929
aF930
aF929
aF929
aF929
aF929
aF929
aF929
aF929
aF929
aF930
aF929
aF929
aF927
aF925
aF923
aF917
aF912
aF911
aF909
aF908
aF905
aF899
aF895
aF884
aF873
aF868
aF865
aF845
aF823
aF801
aF783
aF776
aF775
aF773
aF771
aF763
aF753
aF740
aF714
aF682
aF652
aF615
aF570
aF528
aF489
aF458
aF434
aF408
aF396
aF381
aF364
aF349
aF319
aF300
aF286
aF270
aF258
aF244
aF235
aF225
aF214
aF209
aF205
aF199
aF193
aF185
aF181
aF176
aF171
aF165
aF160
aF157
aF153
aF149
aF144
aF140
aF138
aF135
aF133
aF131
aF129
aF126
aF124
aF123
aF123
aF122
aF122
aF121
aF120
aF120
aF120
aF120
aF119
aF118
aF118
aF118
aF118
aF118
aF117
aF117
aF117
aF116
aF116
aF116
aF116
aF116
aF116
aF117
aF118
aF118
aF119
aF122
aF127
aF130
aF136
aF153
aF173
aF206
aF253
aF306
aF368
aF424
aF513
aF560
aF606
aF635
aF641
aF643
aF650
aF645
aF642
aF639
aF638
aF637
aF635
aF634
aF634
aF634
aF632
aF630
aF630
aF630
aF630
aF629
aF628
aF628
aF627
aF626
aF626
aF626
aF627
aF626
aF625
aF625
aF626
aF624
aF624
aF624
aF624
aF624
aF623
aF623
aF624
aF623
aF623
aF623
aF623
aF623
aF623
aF622
aF621
aF620
aF621
aF620
aF619
aF614
aF608
aF600
aF590
aF582
aF566
aF505
aF464
aF425
aF396
aF370
aF344
aF328
aF310
aF289
aF270
aF253
aF238
aF221
aF202
aF192
aF186
aF181
aF178
aF175
aF171
aF167
aF164
aF160
aF158
aF156
aF154
aF151
aF149
aF147
aF143
aF142
aF141
aF139
aF137
aF136
aF135
aF134
aF133
aF133
aF133
aF134
aF135
aF139
aF145
aF153
aF160
aF182
as.