(dp1
S'time_cost'
p2
(lp3
cnumpy.core.multiarray
scalar
p4
(cnumpy
dtype
p5
(S'f8'
I0
I1
tRp6
(I3
S'<'
NNNI-1
I-1
I0
tbS'\xf8\xff\xff\xff\xff\x88\xf3@'
tRp7
ag4
(g6
S'.3333+\xf2@'
tRp8
ag4
(g6
S'Ci\x99\x99Y\xb9\xed@'
tRp9
ag4
(g6
S'\xf0Mp=\x9a\xd8\xe7@'
tRp10
ag4
(g6
S'F\x03\x99\x99\xa9<\xe4@'
tRp11
ag4
(g6
S'\x01!\xcc\xcc\xac\x91\xe1@'
tRp12
ag4
(g6
S'\xf7z13\xf3\x99\xde@'
tRp13
ag4
(g6
S'\xda\xf6\x97\x99\xb9\x9c\xdb@'
tRp14
ag4
(g6
S'<^P\xb8^\xc3\xd8@'
tRp15
ag4
(g6
S't}\xfe\xff\xdf\xad\xd6@'
tRp16
ag4
(g6
S'AJ\xcb\xcc,l\xd5@'
tRp17
ag4
(g6
S'\xb5\x8513\xd3\x10\xd4@'
tRp18
ag4
(g6
S'\x90\x14\xcb\xccL\x17\xd3@'
tRp19
ag4
(g6
S'\t<\xacGA5\xd2@'
tRp20
ag4
(g6
S'O\x1f\xcb\xcc\xcc\x8a\xd1@'
tRp21
ag4
(g6
S'\xcc!\x98\x99\xf9\xa8\xd2@'
tRp22
ag4
(g6
S'\x8d\x17\xc1\xf5\xa8\x88\xd1@'
tRp23
ag4
(g6
S'\xe5\xcb\x97\x999G\xd0@'
tRp24
ag4
(g6
S'\xdcF\xc9\xccL\x83\xcf@'
tRp25
ag4
(g6
S'C\xad/3\xf3r\xce@'
tRp26
ag4
(g6
S'.\xfe\x95\x99\xd9\xa7\xce@'
tRp27
ag4
(g6
S'<\xd3\x95\x99\x19\x0b\xcf@'
tRp28
ag4
(g6
S'\xa7\x13\x96\x99\x99\x98\xcd@'
tRp29
ag4
(g6
S'\xfd\xcabff\xbc\xcc@'
tRp30
ag4
(g6
S'`1\xc9\xcc\x8cE\xcd@'
tRp31
ag4
(g6
S'\xdaF\xc9\xcc\x0cr\xcc@'
tRp32
asS'result_cost'
p33
(lp34
F2000000
aF1850000
aF1400000
aF1300000
aF1250000
aF1225000
aF1250000
aF1225000
aF1200000
aF1225000
aF1175000
aF1175000
aF1175000
aF1175000
aF1175000
aF1200000
aF1175000
aF1150000
aF1150000
aF1150000
aF1125000
aF1125000
aF1150000
aF1150000
aF1125000
aF1125000
asS'max_force_cost'
p35
(lp36
F0
aF0
ag4
(g6
S'f\x0bef\x03[\x83@'
tRp37
ag4
(g6
S'\x7f\x8abp\xcc<\x9c@'
tRp38
ag4
(g6
S'~\xf8x\xfb\xd5\x1f\xa9@'
tRp39
ag4
(g6
S'r\x81\xfa\xc0tT\xb8@'
tRp40
ag4
(g6
S'Z1\xca\xf8\xd5@\xbd@'
tRp41
ag4
(g6
S"\xa2\xa83'\x85\x19\xc5@"
tRp42
ag4
(g6
S']{\xe9Q~X\xca@'
tRp43
ag4
(g6
S'\xaa\xb6=\xdb\xfb\xd1\xc8@'
tRp44
ag4
(g6
S'\x00\xeeQ\x8e\xb0\xab\xca@'
tRp45
ag4
(g6
S'HB-f\xbc\x96\xd0@'
tRp46
ag4
(g6
S'\\\x11\x1f"\x8a\xca\xd1@'
tRp47
ag4
(g6
S'\xbb\x8d\xa9\xea\xa0\xad\xd2@'
tRp48
ag4
(g6
S'E\x1eh\x8c\xa7\xfd\xd4@'
tRp49
ag4
(g6
S'\xa0\xc4\xc41$e\xd6@'
tRp50
ag4
(g6
S'\xdf\x9bHXa\xd7\xd8@'
tRp51
ag4
(g6
S'\xd4\xd6\xefV3\x99\xd8@'
tRp52
ag4
(g6
S'M)\x83\xd4Ta\xdb@'
tRp53
ag4
(g6
S'B\xdf\x0c\xae\xd3\x00\xdc@'
tRp54
ag4
(g6
S'\xcax\x1d!\xc8/\xdf@'
tRp55
ag4
(g6
S'A\xf9\x84\xc0/8\xe0@'
tRp56
ag4
(g6
S'\x1e%\xaf\xd9\x84K\xe1@'
tRp57
ag4
(g6
S'\xa7\\\xbc\xc6\xe8\x13\xe2@'
tRp58
ag4
(g6
S'\xcd\x1f8\xfa\r\xb2\xe0@'
tRp59
ag4
(g6
S'RdZ9[\x91\xe1@'
tRp60
asS'not_converged'
p61
(lp62
I0
aI0
aI0
aI0
aI0
aI0
aI0
aI0
aI0
aI0
aI0
aI0
aI0
aI0
aI0
aI0
aI0
aI0
aI0
aI0
aI0
aI0
aI0
aI0
aI0
aI0
asS'force_cost'
p63
(lp64
F0
ag4
(g6
S'\x00\x00\x00\x00\x00\x00\x00\x00'
tRp65
ag4
(g6
S'\xa8j(\xe7\xe1\x91\xb4@'
tRp66
ag4
(g6
S'\xe8\x12F\xe5}\x13\xd1@'
tRp67
ag4
(g6
S'^X\xe4\xc5\xd9\xf8\xd6@'
tRp68
ag4
(g6
S'\xc3hk.X\xc7\xd5@'
tRp69
ag4
(g6
S'\xac\x0c\x8e\x15\xf0\x1c\xd0@'
tRp70
ag4
(g6
S'S\x9d\\\xff?u\xcf@'
tRp71
ag4
(g6
S'U\x8f{6)\x15\xd0@'
tRp72
ag4
(g6
S'\x8e>\xad\xa9V\xd2\xcf@'
tRp73
ag4
(g6
S'\x99\x8a\x7f1f\x9d\xcf@'
tRp74
ag4
(g6
S's\xb7\xdb\xdd1\xa8\xd0@'
tRp75
ag4
(g6
S'(\x1a\xff\xea\xa2\xb1\xcf@'
tRp76
ag4
(g6
S'UF\xa0[6\xa1\xcd@'
tRp77
ag4
(g6
S'\xf5,?\x11\x04"\xd2@'
tRp78
ag4
(g6
S'9kr4\xfcu\xcf@'
tRp79
ag4
(g6
S'\xc3\x94.!\xa6\x03\xd1@'
tRp80
ag4
(g6
S'\x02\t\x0cM\xa8\x9a\xcf@'
tRp81
ag4
(g6
S'\xb3l\xf9w\x0cl\xcc@'
tRp82
ag4
(g6
S'\xdc\x94\xc1x\xb1\xa3\xca@'
tRp83
ag4
(g6
S'\xaa\x1d\xd2\xa7\xc18\xd1@'
tRp84
ag4
(g6
S'\x1d\x00\xd8,\r>\xd1@'
tRp85
ag4
(g6
S'\x02N\xd5\xe5\xc9\x12\xd1@'
tRp86
ag4
(g6
S'x\\pim&\xcc@'
tRp87
ag4
(g6
S'y\xc2\x01\x8b\x90N\xcd@'
tRp88
ag4
(g6
S'(mj\xe5((\xcd@'
tRp89
asS'x_history'
p90
(lp91
(lp92
F1
aF255
aF0.74299999999999999
aF15
aF0.44999999999999996
aF94
aF35
aF0.014999999999999999
aa(lp93
F12.960000000000001
aF255
aF0.74299999999999999
aF15
aF0.44999999999999996
aF94
aF35
aF0.014999999999999999
aa(lp94
F24.920000000000002
aF255
aF0.74299999999999999
aF15
aF0.44999999999999996
aF94
aF35
aF0.014999999999999999
aa(lp95
F36.880000000000003
aF255
aF0.74299999999999999
aF15
aF0.44999999999999996
aF94
aF35
aF0.014999999999999999
aa(lp96
F48.840000000000003
aF255
aF0.74299999999999999
aF15
aF0.44999999999999996
aF94
aF35
aF0.014999999999999999
aa(lp97
F60.799999999999997
aF255
aF0.74299999999999999
aF15
aF0.44999999999999996
aF94
aF35
aF0.014999999999999999
aa(lp98
F72.760000000000005
aF255
aF0.74299999999999999
aF15
aF0.44999999999999996
aF94
aF35
aF0.014999999999999999
aa(lp99
F84.719999999999999
aF255
aF0.74299999999999999
aF15
aF0.44999999999999996
aF94
aF35
aF0.014999999999999999
aa(lp100
F96.680000000000007
aF255
aF0.74299999999999999
aF15
aF0.44999999999999996
aF94
aF35
aF0.014999999999999999
aa(lp101
F108.64
aF255
aF0.74299999999999999
aF15
aF0.44999999999999996
aF94
aF35
aF0.014999999999999999
aa(lp102
F120.59999999999999
aF255
aF0.74299999999999999
aF15
aF0.44999999999999996
aF94
aF35
aF0.014999999999999999
aa(lp103
F132.56
aF255
aF0.74299999999999999
aF15
aF0.44999999999999996
aF94
aF35
aF0.014999999999999999
aa(lp104
F144.52000000000001
aF255
aF0.74299999999999999
aF15
aF0.44999999999999996
aF94
aF35
aF0.014999999999999999
aa(lp105
F156.47999999999999
aF255
aF0.74299999999999999
aF15
aF0.44999999999999996
aF94
aF35
aF0.014999999999999999
aa(lp106
F168.44
aF255
aF0.74299999999999999
aF15
aF0.44999999999999996
aF94
aF35
aF0.014999999999999999
aa(lp107
F180.40000000000001
aF255
aF0.74299999999999999
aF15
aF0.44999999999999996
aF94
aF35
aF0.014999999999999999
aa(lp108
F192.36000000000001
aF255
aF0.74299999999999999
aF15
aF0.44999999999999996
aF94
aF35
aF0.014999999999999999
aa(lp109
F204.31999999999999
aF255
aF0.74299999999999999
aF15
aF0.44999999999999996
aF94
aF35
aF0.014999999999999999
aa(lp110
F216.28
aF255
aF0.74299999999999999
aF15
aF0.44999999999999996
aF94
aF35
aF0.014999999999999999
aa(lp111
F228.24000000000001
aF255
aF0.74299999999999999
aF15
aF0.44999999999999996
aF94
aF35
aF0.014999999999999999
aa(lp112
F240.19999999999999
aF255
aF0.74299999999999999
aF15
aF0.44999999999999996
aF94
aF35
aF0.014999999999999999
aa(lp113
F252.16
aF255
aF0.74299999999999999
aF15
aF0.44999999999999996
aF94
aF35
aF0.014999999999999999
aa(lp114
F264.12
aF255
aF0.74299999999999999
aF15
aF0.44999999999999996
aF94
aF35
aF0.014999999999999999
aa(lp115
F276.07999999999998
aF255
aF0.74299999999999999
aF15
aF0.44999999999999996
aF94
aF35
aF0.014999999999999999
aa(lp116
F288.04000000000002
aF255
aF0.74299999999999999
aF15
aF0.44999999999999996
aF94
aF35
aF0.014999999999999999
aa(lp117
F300
aF255
aF0.74299999999999999
aF15
aF0.44999999999999996
aF94
aF35
aF0.014999999999999999
aasS'cost_history'
p118
(lp119
g4
(g6
S'\xf5\xff\xff\xff\x0f\xbd?A'
tRp120
ag4
(g6
S'+333C]=A'
tRp121
ag4
(g6
S'R\xc0 \x0f\x88a6A'
tRp122
ag4
(g6
S'\\\xb3\x9c\xfcA\xe04A'
tRp123
ag4
(g6
S'\xf7\x15\xe2\x9e(\x1d4A'
tRp124
ag4
(g6
S"/\t\xe1;'\xad3A"
tRp125
ag4
(g6
S'O\xc8\x1bc\xec\xea3A'
tRp126
ag4
(g6
S'g\x80\xb3p\xb8\x883A'
tRp127
ag4
(g6
S"\xac\x02_\x1c\x93'3A"
tRp128
ag4
(g6
S'\xe2\xcf\t%(}3A'
tRp129
ag4
(g6
S'\x19\xd0\xb2\xe0\x1a\xb82A'
tRp130
ag4
(g6
S'\xfc\xe9\xdc\x05\x17\xc32A'
tRp131
ag4
(g6
S'\xcd\xa6\x91\xa1\xc2\xc02A'
tRp132
ag4
(g6
S'\xb6\x97\x80\xf5\xa5\xbc2A'
tRp133
ag4
(g6
S'\xa9\xc9\xa9\xe1\x81\xd02A'
tRp134
ag4
(g6
S'oX\x96o\xa423A'
tRp135
ag4
(g6
S'#\xe1\xbc\xc1f\xdb2A'
tRp136
ag4
(g6
S'\x9c6\\\x04\xe7n2A'
tRp137
ag4
(g6
S'\x0c\x92\xdb\x05\x94q2A'
tRp138
ag4
(g6
S'\xff\x15\x10\x98`n2A'
tRp139
ag4
(g6
S'V\xeaV\xday)2A'
tRp140
ag4
(g6
S'o\xb3\xea\xe5W/2A'
tRp141
ag4
(g6
S'\x8a\xfa\x97\x81\x08\x962A'
tRp142
ag4
(g6
S'4\x89\xd5\xed\x94\x8e2A'
tRp143
ag4
(g6
S'\xe9V\x81\xaa@%2A'
tRp144
ag4
(g6
S'\x8b:/EG*2A'
tRp145
as.