(dp1
S'pull_up'
p2
F470
sS'contact_area'
p3
F0.00040000000000000002
sS'adc_bias'
p4
F899
sS'ft'
p5
(lp6
cnumpy.core.multiarray
scalar
p7
(cnumpy
dtype
p8
(S'f4'
I0
I1
tRp9
(I3
S'<'
NNNI-1
I-1
I0
tbS'\x00p\x08\xbc'
tRp10
ag7
(g9
S'\x00\x10\xfd;'
tRp11
ag7
(g9
S'\x00\xb0z\xbc'
tRp12
ag7
(g9
S'\x00(\x18\xbd'
tRp13
ag7
(g9
S'\x00.n\xbd'
tRp14
ag7
(g9
S'\x00L}\xbd'
tRp15
ag7
(g9
S'\x00\x94\xaf\xbc'
tRp16
ag7
(g9
S'\x00t\x87\xbc'
tRp17
ag7
(g9
S'\x00@z\xbb'
tRp18
ag7
(g9
S'\x00\x90h<'
tRp19
ag7
(g9
S'\x00L\xc0\xbc'
tRp20
ag7
(g9
S'\x00\x00;\xba'
tRp21
ag7
(g9
S'\x00\xb8f\xbc'
tRp22
ag7
(g9
S'\x00H\xc0<'
tRp23
ag7
(g9
S"\x00\xb8'="
tRp24
ag7
(g9
S'\x00\xee+='
tRp25
ag7
(g9
S'\x00\x00r\xb9'
tRp26
ag7
(g9
S'\x00x}\xbc'
tRp27
ag7
(g9
S'\x00,\xd7\xbc'
tRp28
ag7
(g9
S'\x00\x88:\xbc'
tRp29
ag7
(g9
S'\x00\x80\x93;'
tRp30
ag7
(g9
S'\x00\xf0m\xbc'
tRp31
ag7
(g9
S'\x00\xf07\xbd'
tRp32
ag7
(g9
S'\x00\xa4\x1d\xbd'
tRp33
ag7
(g9
S'\x00\xf0\xbd\xbc'
tRp34
ag7
(g9
S'\x00\x10\x00<'
tRp35
ag7
(g9
S'\x00\x9c\x95<'
tRp36
ag7
(g9
S'\x00\xa0\xb8\xbb'
tRp37
ag7
(g9
S'\x00\xac\xb7\xbc'
tRp38
ag7
(g9
S'\x00\xa6\x7f\xbd'
tRp39
ag7
(g9
S'\x00Z\t\xbd'
tRp40
ag7
(g9
S'\x00`\x0b;'
tRp41
ag7
(g9
S'\x00B\x05\xbd'
tRp42
ag7
(g9
S'\x00R\x0b\xbd'
tRp43
ag7
(g9
S'\x00\xa0\xad\xbb'
tRp44
ag7
(g9
S'\x00\xcc\xac\xbc'
tRp45
ag7
(g9
S'\x00\xd4\x19\xbd'
tRp46
ag7
(g9
S'\x000\xdf\xbc'
tRp47
ag7
(g9
S'\x00\xd0F<'
tRp48
ag7
(g9
S'\x00\xb2s='
tRp49
ag7
(g9
S'\x00\xa3\x83>'
tRp50
ag7
(g9
S'\xa0\xe5\x08?'
tRp51
ag7
(g9
S'P\x95\x9f?'
tRp52
ag7
(g9
S'\xb0.\xcb?'
tRp53
ag7
(g9
S'8\xec\x03@'
tRp54
ag7
(g9
S'h\x0fJ@'
tRp55
ag7
(g9
S'\xb8\xfed@'
tRp56
ag7
(g9
S'\x0c\x83\x8f@'
tRp57
ag7
(g9
S'\x84\xb0\xad@'
tRp58
ag7
(g9
S'L\xa5\xe0@'
tRp59
ag7
(g9
S'\xce#\x04A'
tRp60
ag7
(g9
S'R\xa4\x0eA'
tRp61
ag7
(g9
S'\xfaA2A'
tRp62
ag7
(g9
S'\x8e\x18LA'
tRp63
ag7
(g9
S'^\xc1fA'
tRp64
ag7
(g9
S'\xd9\x1d\x81A'
tRp65
ag7
(g9
S'{\xa6\x8fA'
tRp66
ag7
(g9
S'\xaf\xfd\x9eA'
tRp67
ag7
(g9
S'\x87r\xadA'
tRp68
ag7
(g9
S'!s\xb5A'
tRp69
ag7
(g9
S'17\xceA'
tRp70
ag7
(g9
S'\xa9\xa5\xe1A'
tRp71
ag7
(g9
S"'\xfa\xf5A"
tRp72
ag7
(g9
S'T\xce\x04B'
tRp73
ag7
(g9
S'\xec,\x0eB'
tRp74
ag7
(g9
S'\xe0\xca\x16B'
tRp75
ag7
(g9
S'\xc63\x1fB'
tRp76
ag7
(g9
S"\x92^'B"
tRp77
ag7
(g9
S'\x8a\xf4-B'
tRp78
ag7
(g9
S'\xd8L0B'
tRp79
ag7
(g9
S'B\xfd5B'
tRp80
ag7
(g9
S'\x9ao6B'
tRp81
ag7
(g9
S'.\xa45B'
tRp82
ag7
(g9
S'\x0c\xf70B'
tRp83
ag7
(g9
S'F\xbd$B'
tRp84
ag7
(g9
S'*A\x1bB'
tRp85
ag7
(g9
S'\x18J\x10B'
tRp86
ag7
(g9
S',\x01\x04B'
tRp87
ag7
(g9
S'\xb9u\xeeA'
tRp88
ag7
(g9
S'i(\xd5A'
tRp89
ag7
(g9
S'\x7f\xd0\xc8A'
tRp90
ag7
(g9
S'\x93\xb4\xa5A'
tRp91
ag7
(g9
S'\xcf\\\x8eA'
tRp92
ag7
(g9
S'~\x04qA'
tRp93
ag7
(g9
S'>\x9f]A'
tRp94
ag7
(g9
S'\xd6\xb5(A'
tRp95
ag7
(g9
S'\x92\x9a\x0bA'
tRp96
ag7
(g9
S'\x94g\xe3@'
tRp97
ag7
(g9
S'\x84\xd9\xb8@'
tRp98
ag7
(g9
S'\xbcv\x84@'
tRp99
ag7
(g9
S'\x18\nW@'
tRp100
ag7
(g9
S'\xf8f/@'
tRp101
ag7
(g9
S'\xd8r\x12@'
tRp102
ag7
(g9
S'x&\x03@'
tRp103
ag7
(g9
S'\x90\xf8\xc8?'
tRp104
ag7
(g9
S'\x10\x0f\xa5?'
tRp105
ag7
(g9
S'\xd0\x96\x8f?'
tRp106
ag7
(g9
S'`\t\x7f?'
tRp107
ag7
(g9
S'\xa05p?'
tRp108
ag7
(g9
S'\xe0`g?'
tRp109
ag7
(g9
S'\xe0n^?'
tRp110
ag7
(g9
S'\xa0>M?'
tRp111
ag7
(g9
S' \xddC?'
tRp112
ag7
(g9
S'\xa0\xe4D?'
tRp113
ag7
(g9
S'\xe0\xa7V?'
tRp114
ag7
(g9
S' 8d?'
tRp115
ag7
(g9
S'\x90\xf2\x90?'
tRp116
ag7
(g9
S'0\x17\xc9?'
tRp117
ag7
(g9
S'\xa8T\x13@'
tRp118
ag7
(g9
S'\xd8\xc3U@'
tRp119
ag7
(g9
S'\x14\x1f\xa7@'
tRp120
ag7
(g9
S'\xb4\x9e\xd5@'
tRp121
ag7
(g9
S'\xf2\xc2\x04A'
tRp122
ag7
(g9
S'\xca\xed!A'
tRp123
ag7
(g9
S'\x86HBA'
tRp124
ag7
(g9
S'\x9e\xaddA'
tRp125
ag7
(g9
S'uv\x84A'
tRp126
ag7
(g9
S'\xdb\xbb\x98A'
tRp127
ag7
(g9
S'\x19\r\xafA'
tRp128
ag7
(g9
S"'r\xbbA"
tRp129
ag7
(g9
S';\xc7\xdeA'
tRp130
ag7
(g9
S'\xd7\xfb\xf5A'
tRp131
ag7
(g9
S'&\xee\x0cB'
tRp132
ag7
(g9
S'jC\x13B'
tRp133
ag7
(g9
S'\xf4G\x1fB'
tRp134
ag7
(g9
S'\x8a\x92*B'
tRp135
ag7
(g9
S'\x04\xad:B'
tRp136
ag7
(g9
S'\x02W@B'
tRp137
ag7
(g9
S'\xea\xfeJB'
tRp138
ag7
(g9
S'j\x83SB'
tRp139
ag7
(g9
S'\xeatZB'
tRp140
ag7
(g9
S'\xc6\xd8_B'
tRp141
ag7
(g9
S'lZbB'
tRp142
ag7
(g9
S'\x00\xfc`B'
tRp143
ag7
(g9
S'\xfa\x04[B'
tRp144
ag7
(g9
S'\x14)MB'
tRp145
ag7
(g9
S'\xaa\x1e@B'
tRp146
ag7
(g9
S'\xf4a0B'
tRp147
ag7
(g9
S'\xc0H\x1fB'
tRp148
ag7
(g9
S'\xd2a\rB'
tRp149
ag7
(g9
S'\xc1\x1c\xf5A'
tRp150
ag7
(g9
S'\x07\xcc\xc0A'
tRp151
ag7
(g9
S'y\xee\xa1A'
tRp152
ag7
(g9
S'}\x86\x86A'
tRp153
ag7
(g9
S'\x8e\x92]A'
tRp154
ag7
(g9
S'rvIA'
tRp155
ag7
(g9
S'\xfeA6A'
tRp156
ag7
(g9
S'\xb4\xd7\xf7@'
tRp157
ag7
(g9
S'\x1c\xb5\xcc@'
tRp158
ag7
(g9
S'L\xf0\xa5@'
tRp159
ag7
(g9
S'l\x9d\x84@'
tRp160
ag7
(g9
S'\xe8\xedQ@'
tRp161
ag7
(g9
S'(\x99)@'
tRp162
ag7
(g9
S'\xd8.\x0b@'
tRp163
ag7
(g9
S'\xb0{\xe9?'
tRp164
ag7
(g9
S'\xb0\xb3\xc3?'
tRp165
ag7
(g9
S'\xf0\x0b\xbd?'
tRp166
ag7
(g9
S'P[\xa6?'
tRp167
ag7
(g9
S'\x10)\x8e?'
tRp168
ag7
(g9
S'\xd0,\x85?'
tRp169
ag7
(g9
S'`\xf1t?'
tRp170
ag7
(g9
S'`\x01t?'
tRp171
ag7
(g9
S' \x08\x7f?'
tRp172
ag7
(g9
S'\xd0\xd3\x97?'
tRp173
ag7
(g9
S'P\xa9\xae?'
tRp174
ag7
(g9
S'\x90\xb3\xd9?'
tRp175
ag7
(g9
S'pD\xf0?'
tRp176
ag7
(g9
S'8\xed\x19@'
tRp177
ag7
(g9
S'X\xc1M@'
tRp178
ag7
(g9
S'l%\x8b@'
tRp179
ag7
(g9
S'\xa4\xd6\xbd@'
tRp180
ag7
(g9
S'\xaa:\x0fA'
tRp181
ag7
(g9
S'.\x002A'
tRp182
ag7
(g9
S'\xce\xcdTA'
tRp183
ag7
(g9
S'\xc2(zA'
tRp184
ag7
(g9
S'1\xd4\x90A'
tRp185
ag7
(g9
S'u\r\xa6A'
tRp186
ag7
(g9
S'=u\xbbA'
tRp187
ag7
(g9
S'\x91\xa8\xdbA'
tRp188
ag7
(g9
S'\xd9r\xe6A'
tRp189
ag7
(g9
S'f\x85\x03B'
tRp190
ag7
(g9
S'\xa4\xc8\rB'
tRp191
ag7
(g9
S'\xb0)\x18B'
tRp192
ag7
(g9
S'L\xde\x1dB'
tRp193
ag7
(g9
S'*\xb22B'
tRp194
ag7
(g9
S'\x88\x92?B'
tRp195
ag7
(g9
S'Z\x9dJB'
tRp196
ag7
(g9
S'\x08\x1dTB'
tRp197
ag7
(g9
S'Bb[B'
tRp198
ag7
(g9
S'r-^B'
tRp199
ag7
(g9
S'\xfe\xdcbB'
tRp200
ag7
(g9
S':7cB'
tRp201
ag7
(g9
S'\xb2#cB'
tRp202
ag7
(g9
S'\x027`B'
tRp203
ag7
(g9
S'L\xf2[B'
tRp204
ag7
(g9
S'l\tVB'
tRp205
ag7
(g9
S'\x08\x0fNB'
tRp206
ag7
(g9
S'^\xc2CB'
tRp207
ag7
(g9
S'\x92\x068B'
tRp208
ag7
(g9
S'\xf2\xda+B'
tRp209
ag7
(g9
S'jj\x16B'
tRp210
ag7
(g9
S'\x96\xc5\rB'
tRp211
ag7
(g9
S'\xab\xa6\xe8A'
tRp212
ag7
(g9
S'\xfd4\xc8A'
tRp213
ag7
(g9
S'S\xdb\xa9A'
tRp214
ag7
(g9
S'\xbf)\x8fA'
tRp215
ag7
(g9
S'V\xc5qA'
tRp216
ag7
(g9
S'\x8e6NA'
tRp217
ag7
(g9
S'\xf2:2A'
tRp218
ag7
(g9
S'.\x83%A'
tRp219
ag7
(g9
S'\xfe\x1e\x08A'
tRp220
ag7
(g9
S'Tj\xef@'
tRp221
ag7
(g9
S'd4\xd4@'
tRp222
ag7
(g9
S'\x04\xbd\xc6@'
tRp223
ag7
(g9
S'LY\xab@'
tRp224
ag7
(g9
S'<\xfb\x9b@'
tRp225
ag7
(g9
S'\xb4\xc5\x91@'
tRp226
ag7
(g9
S'\xa4`\x8e@'
tRp227
ag7
(g9
S'\x8c\xbe\x84@'
tRp228
ag7
(g9
S'\xfc\xb1\x80@'
tRp229
ag7
(g9
S'H\xe0u@'
tRp230
ag7
(g9
S'\xc8Ij@'
tRp231
ag7
(g9
S'(#^@'
tRp232
ag7
(g9
S'\xf8#T@'
tRp233
ag7
(g9
S'\xd8\x9fP@'
tRp234
ag7
(g9
S'\x08\xf4L@'
tRp235
ag7
(g9
S'\xa8\xf2M@'
tRp236
ag7
(g9
S'\xc8BQ@'
tRp237
ag7
(g9
S'\x88\xc1V@'
tRp238
ag7
(g9
S'\xc8\xdcg@'
tRp239
ag7
(g9
S'd\x8b\x84@'
tRp240
ag7
(g9
S'\xac\xcb\x9d@'
tRp241
ag7
(g9
S'\\;\xd7@'
tRp242
ag7
(g9
S'd\x1d\xf0@'
tRp243
ag7
(g9
S':\x8c"A'
tRp244
ag7
(g9
S'"x2A'
tRp245
ag7
(g9
S'\x0e?SA'
tRp246
ag7
(g9
S'\xfe\x9avA'
tRp247
ag7
(g9
S'\xc9\xd6\x97A'
tRp248
ag7
(g9
S'q\x9e\xabA'
tRp249
ag7
(g9
S'wD\xbeA'
tRp250
ag7
(g9
S'\xf9Z\xc7A'
tRp251
ag7
(g9
S'\xcfo\xe1A'
tRp252
ag7
(g9
S'OF\xf2A'
tRp253
ag7
(g9
S'\x8c;\x01B'
tRp254
ag7
(g9
S'\xf6[\tB'
tRp255
ag7
(g9
S'\x1el\x10B'
tRp256
ag7
(g9
S'B\xc0\x18B'
tRp257
ag7
(g9
S'X\xb3\x1fB'
tRp258
ag7
(g9
S'\xa8\xbc%B'
tRp259
ag7
(g9
S'2\x90*B'
tRp260
ag7
(g9
S'\x16C.B'
tRp261
ag7
(g9
S'`\xc61B'
tRp262
ag7
(g9
S',\xd44B'
tRp263
ag7
(g9
S'F[8B'
tRp264
ag7
(g9
S'\x9cs<B'
tRp265
ag7
(g9
S'da@B'
tRp266
ag7
(g9
S'@\xb0CB'
tRp267
ag7
(g9
S'\x08\x1bFB'
tRp268
ag7
(g9
S'f\rEB'
tRp269
ag7
(g9
S'\x88\xdf@B'
tRp270
ag7
(g9
S'l\x849B'
tRp271
ag7
(g9
S'\x16\xf7,B'
tRp272
ag7
(g9
S',3%B'
tRp273
ag7
(g9
S'\xd8\xb6\nB'
tRp274
ag7
(g9
S'\x7fW\xf1A'
tRp275
ag7
(g9
S'#j\xd0A'
tRp276
ag7
(g9
S'}]\xb2A'
tRp277
ag7
(g9
S'\xe1\x1a\x97A'
tRp278
ag7
(g9
S'\xfe\xce|A'
tRp279
ag7
(g9
S'v\xc7RA'
tRp280
ag7
(g9
S'\x8eJ0A'
tRp281
ag7
(g9
S'\xc6\xa9\x14A'
tRp282
ag7
(g9
S'\x1c\x7f\xfb@'
tRp283
ag7
(g9
S'\x8c\x0f\xd6@'
tRp284
ag7
(g9
S'\xe4\xe3\xb5@'
tRp285
ag7
(g9
S'\xcc\xd9\x94@'
tRp286
ag7
(g9
S'L\xdd\x83@'
tRp287
ag7
(g9
S'XH~@'
tRp288
ag7
(g9
S'\xa8\xa5l@'
tRp289
ag7
(g9
S'\xc8\\Y@'
tRp290
ag7
(g9
S'x\xa0E@'
tRp291
ag7
(g9
S'\x18X6@'
tRp292
ag7
(g9
S'X\x89(@'
tRp293
ag7
(g9
S'\x18\xde!@'
tRp294
ag7
(g9
S'\xa8\xf8\x1f@'
tRp295
ag7
(g9
S'\xf8d\x1b@'
tRp296
ag7
(g9
S'\x18w\x16@'
tRp297
ag7
(g9
S'H\x83\x12@'
tRp298
ag7
(g9
S'H\xf8\x12@'
tRp299
ag7
(g9
S'\xf8\xee\x11@'
tRp300
ag7
(g9
S'x\xb6\x15@'
tRp301
ag7
(g9
S'h\xef\x15@'
tRp302
ag7
(g9
S'H\x8b\x12@'
tRp303
ag7
(g9
S'(\x9b\x11@'
tRp304
ag7
(g9
S'\x082\x14@'
tRp305
ag7
(g9
S'(\xcb\x13@'
tRp306
ag7
(g9
S'Xd\x18@'
tRp307
ag7
(g9
S'\xa8\xff\x1e@'
tRp308
ag7
(g9
S'\xc8\xa9)@'
tRp309
ag7
(g9
S'\x08x9@'
tRp310
ag7
(g9
S'H\x8aQ@'
tRp311
ag7
(g9
S'h\xbfw@'
tRp312
ag7
(g9
S'D\xac\x97@'
tRp313
ag7
(g9
S'\x84y\xbe@'
tRp314
ag7
(g9
S'\xe2\xad\x05A'
tRp315
ag7
(g9
S'^\x02\x15A'
tRp316
ag7
(g9
S'\x0e\x8bDA'
tRp317
ag7
(g9
S'\x16\xc7fA'
tRp318
ag7
(g9
S'\x8b\xe4\x85A'
tRp319
ag7
(g9
S'eo\x98A'
tRp320
ag7
(g9
S'\x13$\xacA'
tRp321
ag7
(g9
S'E\xea\xc0A'
tRp322
ag7
(g9
S'-#\xd5A'
tRp323
ag7
(g9
S'\x9fw\xe7A'
tRp324
ag7
(g9
S'\xfdJ\xf8A'
tRp325
ag7
(g9
S'DD\x04B'
tRp326
ag7
(g9
S'\xaeL\x0bB'
tRp327
ag7
(g9
S'j\x9f\x11B'
tRp328
ag7
(g9
S'\xc8\xa0\x16B'
tRp329
ag7
(g9
S'\xe6P\x1bB'
tRp330
ag7
(g9
S'\x12\xe5\x1fB'
tRp331
ag7
(g9
S'\xa6\x1c$B'
tRp332
ag7
(g9
S"N\xf8'B"
tRp333
ag7
(g9
S'n\x10+B'
tRp334
ag7
(g9
S'^\xcd0B'
tRp335
ag7
(g9
S'\x1c\x192B'
tRp336
ag7
(g9
S'\x9e\xc74B'
tRp337
ag7
(g9
S'\xba\xa66B'
tRp338
ag7
(g9
S'J`7B'
tRp339
ag7
(g9
S'\x9a`4B'
tRp340
ag7
(g9
S'\x9e\xd4.B'
tRp341
ag7
(g9
S'\xb4\x95%B'
tRp342
ag7
(g9
S'\xc6\x8c\x19B'
tRp343
ag7
(g9
S'\x02m\x0bB'
tRp344
ag7
(g9
S'\x17\xf4\xf8A'
tRp345
ag7
(g9
S'\x15\xb3\xe9A'
tRp346
ag7
(g9
S'\xfbR\xbfA'
tRp347
ag7
(g9
S'\xa5\x1b\xa5A'
tRp348
ag7
(g9
S'\xf9N\x8dA'
tRp349
ag7
(g9
S'\x1e8pA'
tRp350
ag7
(g9
S'\x1e\xecJA'
tRp351
ag7
(g9
S'\xa6\xaa*A'
tRp352
ag7
(g9
S'\x16O\x0fA'
tRp353
ag7
(g9
S'L\xc5\xf4@'
tRp354
ag7
(g9
S'\x04\xe5\xd4@'
tRp355
ag7
(g9
S'\\\xc2\xbb@'
tRp356
ag7
(g9
S'\xd4M\xa8@'
tRp357
ag7
(g9
S'|R\x90@'
tRp358
ag7
(g9
S't\xf4\x85@'
tRp359
ag7
(g9
S't\xf4\x85@'
tRp360
ag7
(g9
S'\xb8\xd6r@'
tRp361
ag7
(g9
S'\xf8\xdff@'
tRp362
ag7
(g9
S'\x08\xecW@'
tRp363
ag7
(g9
S'X\x15K@'
tRp364
ag7
(g9
S'\xa8\x98?@'
tRp365
ag7
(g9
S'XP7@'
tRp366
ag7
(g9
S'\xa8-2@'
tRp367
ag7
(g9
S'h!-@'
tRp368
ag7
(g9
S'x\x16)@'
tRp369
ag7
(g9
S'\x18\x1f(@'
tRp370
ag7
(g9
S'\xb8\t%@'
tRp371
ag7
(g9
S'\xd8\xc1#@'
tRp372
ag7
(g9
S"\x08\x0e'@"
tRp373
ag7
(g9
S'\xb8\xb6(@'
tRp374
ag7
(g9
S'8^(@'
tRp375
ag7
(g9
S"\xa86'@"
tRp376
ag7
(g9
S"\x08\xb3'@"
tRp377
ag7
(g9
S'\x88\xaa%@'
tRp378
ag7
(g9
S'\xf8\x13&@'
tRp379
ag7
(g9
S'\xc8v(@'
tRp380
ag7
(g9
S"\xb8b'@"
tRp381
ag7
(g9
S'h\x93,@'
tRp382
ag7
(g9
S'\x88\xfb3@'
tRp383
ag7
(g9
S'\xf8\xa6:@'
tRp384
ag7
(g9
S'\x18\x18A@'
tRp385
ag7
(g9
S'x\x7f_@'
tRp386
ag7
(g9
S'dV\x86@'
tRp387
ag7
(g9
S'\xf49\xa7@'
tRp388
ag7
(g9
S'\x9c\xa2\xd1@'
tRp389
ag7
(g9
S'21\x07A'
tRp390
ag7
(g9
S'\xe6\xf2(A'
tRp391
ag7
(g9
S'\n\xa5NA'
tRp392
ag7
(g9
S'&hvA'
tRp393
ag7
(g9
S"'\x16\x8fA"
tRp394
ag7
(g9
S'\x9dv\xa3A'
tRp395
ag7
(g9
S'\xefa\xb8A'
tRp396
ag7
(g9
S'\x95\xa7\xccA'
tRp397
ag7
(g9
S'mn\xdfA'
tRp398
ag7
(g9
S'M\xd8\xf0A'
tRp399
ag7
(g9
S'R\xbf\x00B'
tRp400
ag7
(g9
S'F\xf7\x07B'
tRp401
ag7
(g9
S'\xd2\x85\x11B'
tRp402
ag7
(g9
S'\xf0|\x17B'
tRp403
ag7
(g9
S'\x842\x1dB'
tRp404
ag7
(g9
S'\x8c\xdc"B'
tRp405
ag7
(g9
S',\x92(B'
tRp406
ag7
(g9
S'\xd4}.B'
tRp407
ag7
(g9
S'x&5B'
tRp408
ag7
(g9
S'\x027;B'
tRp409
ag7
(g9
S'\xf4\x07AB'
tRp410
ag7
(g9
S'\xc8\x8aFB'
tRp411
ag7
(g9
S'\x1a\x03MB'
tRp412
ag7
(g9
S'\x1c\x0eNB'
tRp413
ag7
(g9
S'\xcaHOB'
tRp414
ag7
(g9
S'\xb2\xc5NB'
tRp415
ag7
(g9
S'\n\x12LB'
tRp416
ag7
(g9
S'^\x91FB'
tRp417
ag7
(g9
S'"\xb9=B'
tRp418
ag7
(g9
S'\x94s3B'
tRp419
ag7
(g9
S"\x82\r'B"
tRp420
ag7
(g9
S'\x1e\x03\x12B'
tRp421
ag7
(g9
S'\\&\x03B'
tRp422
ag7
(g9
S'a^\xe8A'
tRp423
ag7
(g9
S'\xe5y\xcaA'
tRp424
ag7
(g9
S'\x19&\xaeA'
tRp425
ag7
(g9
S'\x19\xf2\x93A'
tRp426
ag7
(g9
S'\xc2\x9ezA'
tRp427
ag7
(g9
S'\xfe\xe8RA'
tRp428
ag7
(g9
S'\x06\x92.A'
tRp429
ag7
(g9
S'\x1eV\rA'
tRp430
ag7
(g9
S'\xe4\x1f\xe1@'
tRp431
ag7
(g9
S'\xbc\xe8\xb2@'
tRp432
ag7
(g9
S'\xec\x9b\x8f@'
tRp433
ag7
(g9
S'\x88\xa7U@'
tRp434
ag7
(g9
S'\xd8O3@'
tRp435
ag7
(g9
S'\x98\xfc\x18@'
tRp436
ag7
(g9
S'\x18\xad\x04@'
tRp437
ag7
(g9
S'\x10\x85\xe8?'
tRp438
ag7
(g9
S'PT\xcf?'
tRp439
ag7
(g9
S'\x90\xf7\xb7?'
tRp440
ag7
(g9
S'\xb0E\xa4?'
tRp441
ag7
(g9
S'\xf0.\x9a?'
tRp442
ag7
(g9
S'\x90\x90\x91?'
tRp443
ag7
(g9
S'\xf0T\x8a?'
tRp444
ag7
(g9
S'0w\x86?'
tRp445
ag7
(g9
S'\x10\x93\x89?'
tRp446
ag7
(g9
S'\xf00\x89?'
tRp447
ag7
(g9
S'\x90\xbb\x89?'
tRp448
ag7
(g9
S'\xb0\xda\x80?'
tRp449
ag7
(g9
S'0\xf6\x80?'
tRp450
ag7
(g9
S'\x90N\x82?'
tRp451
ag7
(g9
S'\xd0x\x86?'
tRp452
ag7
(g9
S'0p\x8d?'
tRp453
ag7
(g9
S'\xd0-\x8e?'
tRp454
ag7
(g9
S'\xf0\x8a\x92?'
tRp455
ag7
(g9
S'\xd0\x1b\x97?'
tRp456
ag7
(g9
S'\xd0\xad\x98?'
tRp457
ag7
(g9
S'\xd0\xca\xa4?'
tRp458
ag7
(g9
S'P\x93\xb4?'
tRp459
ag7
(g9
S'P\x80\xd3?'
tRp460
ag7
(g9
S'\xf8\x05\x14@'
tRp461
ag7
(g9
S'\x08I9@'
tRp462
ag7
(g9
S'\xb8\xcbn@'
tRp463
ag7
(g9
S'\xd4\x0b\x97@'
tRp464
ag7
(g9
S"$'\xbe@"
tRp465
ag7
(g9
S'\\\xb3\xed@'
tRp466
ag7
(g9
S'\xb6F\x13A'
tRp467
ag7
(g9
S'\xaa\xea2A'
tRp468
ag7
(g9
S'\x92\xa6VA'
tRp469
ag7
(g9
S'\xa7:\x89A'
tRp470
ag7
(g9
S'![\x94A'
tRp471
ag7
(g9
S"\xb1'\xb6A"
tRp472
ag7
(g9
S'\x81\x17\xc1A'
tRp473
ag7
(g9
S'\xfb\xe0\xe1A'
tRp474
ag7
(g9
S'\xb7`\xf7A'
tRp475
ag7
(g9
S'\xfc\xec\x06B'
tRp476
ag7
(g9
S'\x94\xf1\x10B'
tRp477
ag7
(g9
S'\xa8v\x19B'
tRp478
ag7
(g9
S'\xe2\x1e!B'
tRp479
ag7
(g9
S'\x1a\x01(B'
tRp480
ag7
(g9
S'\xe2;+B'
tRp481
ag7
(g9
S'\x90\xc12B'
tRp482
ag7
(g9
S'\xdc\xc85B'
tRp483
ag7
(g9
S'\xba58B'
tRp484
ag7
(g9
S'\x88p9B'
tRp485
ag7
(g9
S'\x92"9B'
tRp486
ag7
(g9
S'\x02\xaa7B'
tRp487
ag7
(g9
S'\xc0\x9d5B'
tRp488
ag7
(g9
S'\xe4\x0c3B'
tRp489
ag7
(g9
S'\xe2\x81/B'
tRp490
ag7
(g9
S'^\xf8)B'
tRp491
ag7
(g9
S'\xd2\x05#B'
tRp492
ag7
(g9
S'<\xf0\x14B'
tRp493
ag7
(g9
S'\xe4\x86\x0fB'
tRp494
ag7
(g9
S'\xfdT\xf9A'
tRp495
ag7
(g9
S'g\xb2\xebA'
tRp496
ag7
(g9
S'C\xb5\xc1A'
tRp497
ag7
(g9
S'\xb1\x1f\xa6A'
tRp498
ag7
(g9
S'\xdb\xcf\x8cA'
tRp499
ag7
(g9
S'j\xedkA'
tRp500
ag7
(g9
S'\x9e?DA'
tRp501
ag7
(g9
S'\x92\xd2 A'
tRp502
ag7
(g9
S'\xda\xb2\x02A'
tRp503
ag7
(g9
S'\x14\t\xd4@'
tRp504
ag7
(g9
S'T\xfe\xac@'
tRp505
ag7
(g9
S'\x04x\x8f@'
tRp506
ag7
(g9
S'\xd8\xd8u@'
tRp507
ag7
(g9
S'\xd8ZV@'
tRp508
ag7
(g9
S'\xa8"<@'
tRp509
ag7
(g9
S'\x08\xbe)@'
tRp510
ag7
(g9
S'X\xdd\x1c@'
tRp511
ag7
(g9
S'x\xc1\x14@'
tRp512
ag7
(g9
S'x\\\n@'
tRp513
ag7
(g9
S'X\xe3\x07@'
tRp514
ag7
(g9
S'\xf8\n\x04@'
tRp515
ag7
(g9
S'\xe8y\x03@'
tRp516
ag7
(g9
S'\xb0)\xff?'
tRp517
ag7
(g9
S'0\x81\xfe?'
tRp518
ag7
(g9
S'\xb0\x86\xfc?'
tRp519
ag7
(g9
S'\x98\xc9\x00@'
tRp520
ag7
(g9
S'\xe8\xab\x01@'
tRp521
ag7
(g9
S'0\xc0\xf9?'
tRp522
ag7
(g9
S'\x90\x92\xf9?'
tRp523
ag7
(g9
S'\x90j\xf7?'
tRp524
ag7
(g9
S'p\x1a\xfb?'
tRp525
ag7
(g9
S'\x10\x9b\xfd?'
tRp526
ag7
(g9
S'\x90:\xfb?'
tRp527
ag7
(g9
S'0\x87\xf8?'
tRp528
ag7
(g9
S'\x90\xe5\xf6?'
tRp529
ag7
(g9
S'\x10~\xfb?'
tRp530
ag7
(g9
S'\x90A\xf8?'
tRp531
ag7
(g9
S'X\x17\x03@'
tRp532
ag7
(g9
S'x\xf6\r@'
tRp533
ag7
(g9
S'(\xf8\x1a@'
tRp534
ag7
(g9
S'\xb8\xc1#@'
tRp535
ag7
(g9
S'h\xf76@'
tRp536
ag7
(g9
S'\xe8w]@'
tRp537
ag7
(g9
S'\x04!\x8a@'
tRp538
ag7
(g9
S'LH\xa7@'
tRp539
ag7
(g9
S'\\y\xc7@'
tRp540
ag7
(g9
S'\xd4\xda\xf1@'
tRp541
ag7
(g9
S':z\x11A'
tRp542
ag7
(g9
S'J\x12,A'
tRp543
ag7
(g9
S'\x96\xf7GA'
tRp544
ag7
(g9
S'\xfaVdA'
tRp545
ag7
(g9
S'\xf9=\x88A'
tRp546
ag7
(g9
S'\xa38\x8fA'
tRp547
ag7
(g9
S'\xd5{\x9dA'
tRp548
ag7
(g9
S'\xf7\x93\xafA'
tRp549
ag7
(g9
S'S}\xbbA'
tRp550
ag7
(g9
S'\x13i\xc7A'
tRp551
ag7
(g9
S'\xc53\xcdA'
tRp552
ag7
(g9
S'\xe5}\xd9A'
tRp553
ag7
(g9
S'\xc7q\xe6A'
tRp554
ag7
(g9
S'\xad\x1b\xf4A'
tRp555
ag7
(g9
S'\xe2\xfa\x02B'
tRp556
ag7
(g9
S'2\xe3\x05B'
tRp557
ag7
(g9
S'\xa8"\x0cB'
tRp558
ag7
(g9
S'>&\x14B'
tRp559
ag7
(g9
S'F\xe2\x1bB'
tRp560
ag7
(g9
S'PE&B'
tRp561
ag7
(g9
S'l\xe8,B'
tRp562
ag7
(g9
S'0\xc63B'
tRp563
ag7
(g9
S'V\xf18B'
tRp564
ag7
(g9
S'\xce\x1d<B'
tRp565
ag7
(g9
S'l+:B'
tRp566
ag7
(g9
S'0\xb17B'
tRp567
ag7
(g9
S"\x8c'-B"
tRp568
ag7
(g9
S'(\xd1#B'
tRp569
ag7
(g9
S'\x84\x84\x1eB'
tRp570
ag7
(g9
S'hb\x13B'
tRp571
ag7
(g9
S'.\xa1\x07B'
tRp572
ag7
(g9
S'\xe5\xa6\xe4A'
tRp573
ag7
(g9
S'G\x04\xc6A'
tRp574
ag7
(g9
S'S\x89\xa7A'
tRp575
ag7
(g9
S'\x15e\x8cA'
tRp576
ag7
(g9
S'\xbe\xb5eA'
tRp577
ag7
(g9
S'RQ7A'
tRp578
ag7
(g9
S'\x82\xc6\x0fA'
tRp579
ag7
(g9
S'\xf4\x01\xe0@'
tRp580
ag7
(g9
S'\xbc\xb4\xae@'
tRp581
ag7
(g9
S'\x04\xa6\x88@'
tRp582
ag7
(g9
S'X8]@'
tRp583
ag7
(g9
S'X\xaa7@'
tRp584
ag7
(g9
S'\xe8e\x1e@'
tRp585
ag7
(g9
S'X\xeb\r@'
tRp586
ag7
(g9
S'\xf8\x05\x00@'
tRp587
ag7
(g9
S'\x10\xd1\xea?'
tRp588
ag7
(g9
S'\xb0\x1e\xdc?'
tRp589
ag7
(g9
S'\xd0\xcf\xd7?'
tRp590
ag7
(g9
S'0\xe9\xd2?'
tRp591
ag7
(g9
S'0\xb5\xcf?'
tRp592
ag7
(g9
S'pn\xcb?'
tRp593
ag7
(g9
S'P\x88\xcb?'
tRp594
ag7
(g9
S'p\xf5\xc5?'
tRp595
ag7
(g9
S'P\x9b\xc0?'
tRp596
ag7
(g9
S'\xd0z\xc0?'
tRp597
ag7
(g9
S'pD\xc2?'
tRp598
ag7
(g9
S'P\x07\xc4?'
tRp599
ag7
(g9
S'P\xa4\xc0?'
tRp600
ag7
(g9
S'\x10\x17\xbd?'
tRp601
ag7
(g9
S'\x90\x95\xc1?'
tRp602
ag7
(g9
S'\xd0\x96\xc3?'
tRp603
ag7
(g9
S'\xb0\xc1\xc9?'
tRp604
ag7
(g9
S'\xd0\xdc\xc9?'
tRp605
ag7
(g9
S'PX\xc5?'
tRp606
ag7
(g9
S'\x90\x1e\xcd?'
tRp607
ag7
(g9
S'\x90(\xcd?'
tRp608
ag7
(g9
S'0\x9a\xd8?'
tRp609
ag7
(g9
S'\x10\x06\xe8?'
tRp610
ag7
(g9
S'\xe8U\x03@'
tRp611
ag7
(g9
S'Hl\x1e@'
tRp612
ag7
(g9
S'\x88\x9cD@'
tRp613
ag7
(g9
S'\x14_\x8a@'
tRp614
ag7
(g9
S'\x9c\xbe\xb0@'
tRp615
ag7
(g9
S'4\x8d\xdf@'
tRp616
ag7
(g9
S'\x02\xfa\nA'
tRp617
ag7
(g9
S':\xf93A'
tRp618
ag7
(g9
S'\xceUBA'
tRp619
ag7
(g9
S'\xa6\xdaoA'
tRp620
ag7
(g9
S'\xdeJ\x7fA'
tRp621
ag7
(g9
S'u\xa1\x90A'
tRp622
ag7
(g9
S'g\xc4\xa2A'
tRp623
ag7
(g9
S'm\x0b\xbfA'
tRp624
ag7
(g9
S'\x11\x85\xc7A'
tRp625
ag7
(g9
S'\xa1\xb3\xe0A'
tRp626
ag7
(g9
S'a\x1e\xf0A'
tRp627
ag7
(g9
S')t\xffA'
tRp628
ag7
(g9
S'l\x91\x07B'
tRp629
ag7
(g9
S'.\x99\x0eB'
tRp630
ag7
(g9
S'\xe4\x89\x15B'
tRp631
ag7
(g9
S'\xd4r\x1dB'
tRp632
ag7
(g9
S'HU%B'
tRp633
ag7
(g9
S'P\r-B'
tRp634
ag7
(g9
S'\xc0\xac4B'
tRp635
ag7
(g9
S'\x9aU=B'
tRp636
ag7
(g9
S"b'BB"
tRp637
ag7
(g9
S'\x94\xbcDB'
tRp638
ag7
(g9
S'\xe4dEB'
tRp639
ag7
(g9
S'\xf4\xbfBB'
tRp640
ag7
(g9
S'\xfe\xa4<B'
tRp641
ag7
(g9
S'\x9a\x17.B'
tRp642
ag7
(g9
S'2x(B'
tRp643
ag7
(g9
S'\xc4\xcf\x1cB'
tRp644
ag7
(g9
S'\xcc9\x10B'
tRp645
ag7
(g9
S'>\t\x02B'
tRp646
ag7
(g9
S'kB\xe5A'
tRp647
ag7
(g9
S'[j\xc7A'
tRp648
ag7
(g9
S'\xb9\x10\xabA'
tRp649
ag7
(g9
S'\x93!\x84A'
tRp650
ag7
(g9
S'\xde\x01ZA'
tRp651
ag7
(g9
S'\xbe\x860A'
tRp652
ag7
(g9
S'\x1a)\x0cA'
tRp653
ag7
(g9
S'\x1a)\x0cA'
tRp654
ag7
(g9
S'\xcc4\xb0@'
tRp655
ag7
(g9
S'\xbc \x84@'
tRp656
ag7
(g9
S'\xd8\xc1^@'
tRp657
ag7
(g9
S'h\xa2N@'
tRp658
ag7
(g9
S'\x08\xad6@'
tRp659
ag7
(g9
S'x\x02\x1c@'
tRp660
ag7
(g9
S'\xf8\x9d\x13@'
tRp661
ag7
(g9
S'\x18\xdf\x0b@'
tRp662
ag7
(g9
S'\x08\xd0\x03@'
tRp663
ag7
(g9
S'\xb0\xce\xfa?'
tRp664
ag7
(g9
S'0\xd7\xf5?'
tRp665
ag7
(g9
S'\xd0\xb8\xf4?'
tRp666
ag7
(g9
S'P.\xf4?'
tRp667
ag7
(g9
S'P\xc7\xed?'
tRp668
ag7
(g9
S'\x10\x94\xee?'
tRp669
ag7
(g9
S'08\xee?'
tRp670
ag7
(g9
S'p\xda\xeb?'
tRp671
ag7
(g9
S'p\xee\xf7?'
tRp672
ag7
(g9
S'h\xde\x02@'
tRp673
ag7
(g9
S'\xd0\xc8\xff?'
tRp674
ag7
(g9
S'0\xdd\xf9?'
tRp675
ag7
(g9
S'\xd0\x19\xfa?'
tRp676
ag7
(g9
S'\x90J\xe5?'
tRp677
ag7
(g9
S'p\xb5\xe5?'
tRp678
ag7
(g9
S'0\xd9\xdf?'
tRp679
ag7
(g9
S'\xd0b\xdc?'
tRp680
ag7
(g9
S'\xd0\xed\xda?'
tRp681
ag7
(g9
S'\xb0\xc5\xec?'
tRp682
ag7
(g9
S'00\xff?'
tRp683
ag7
(g9
S'\xc8k\x0b@'
tRp684
ag7
(g9
S'\xb8\xe3.@'
tRp685
ag7
(g9
S'hGO@'
tRp686
ag7
(g9
S'\x98\xc7\x7f@'
tRp687
ag7
(g9
S'\x94\xee\x9d@'
tRp688
ag7
(g9
S'd\x8f\xc8@'
tRp689
ag7
(g9
S'\x1ew\x03A'
tRp690
ag7
(g9
S'\x92\xee&A'
tRp691
ag7
(g9
S'v\x1dRA'
tRp692
ag7
(g9
S'\x06\xb4yA'
tRp693
ag7
(g9
S'\xcb\x98\x8fA'
tRp694
ag7
(g9
S'\xef\xf1\xa1A'
tRp695
ag7
(g9
S'\x1b\x12\xb3A'
tRp696
ag7
(g9
S'\xcff\xc3A'
tRp697
ag7
(g9
S'5\xb2\xd3A'
tRp698
ag7
(g9
S'\xa9\xeb\xe2A'
tRp699
ag7
(g9
S'\xbbh\xf2A'
tRp700
ag7
(g9
S'\xe0`\x01B'
tRp701
ag7
(g9
S'<8\x0eB'
tRp702
ag7
(g9
S'\xfc\xd4\x16B'
tRp703
ag7
(g9
S'\x0c\x01\x1fB'
tRp704
ag7
(g9
S'r\xbd&B'
tRp705
ag7
(g9
S'V\x97.B'
tRp706
ag7
(g9
S'>W2B'
tRp707
ag7
(g9
S'\x98\xdb8B'
tRp708
ag7
(g9
S'hwAB'
tRp709
ag7
(g9
S'8\xcaCB'
tRp710
ag7
(g9
S'\n\xeaDB'
tRp711
ag7
(g9
S'\x9e\xe0DB'
tRp712
ag7
(g9
S'\x08\xacBB'
tRp713
ag7
(g9
S'\x9a >B'
tRp714
ag7
(g9
S'~\x023B'
tRp715
ag7
(g9
S'T\x1a)B'
tRp716
ag7
(g9
S'\xb0\xc1\x1dB'
tRp717
ag7
(g9
S'\x9cG\x11B'
tRp718
ag7
(g9
S'\x10\x8c\x03B'
tRp719
ag7
(g9
S'If\xeaA'
tRp720
ag7
(g9
S'\xa5\xe0\xccA'
tRp721
ag7
(g9
S')n\xb0A'
tRp722
ag7
(g9
S'\xd5\x88\x95A'
tRp723
ag7
(g9
S'\xaeYyA'
tRp724
ag7
(g9
S'\xd6xKA'
tRp725
ag7
(g9
S'>=\x1eA'
tRp726
ag7
(g9
S'\xfcU\xe8@'
tRp727
ag7
(g9
S'|\xa4\xab@'
tRp728
ag7
(g9
S'<\xc3\x80@'
tRp729
ag7
(g9
S'8qD@'
tRp730
ag7
(g9
S'H\x84\x16@'
tRp731
ag7
(g9
S'\xb0w\xed?'
tRp732
ag7
(g9
S'\xd0\xa0\xb5?'
tRp733
ag7
(g9
S'\xf0\xb7\x90?'
tRp734
ag7
(g9
S'\xa0\x02y?'
tRp735
ag7
(g9
S'\xa0&\\?'
tRp736
ag7
(g9
S' \xbe8?'
tRp737
ag7
(g9
S' \x07,?'
tRp738
ag7
(g9
S'\xe0\xac#?'
tRp739
ag7
(g9
S' 5%?'
tRp740
ag7
(g9
S'`\x16\x0f?'
tRp741
ag7
(g9
S'\xa0\t\x08?'
tRp742
ag7
(g9
S'\xa0\x15\x0e?'
tRp743
ag7
(g9
S'\xe0a\x0b?'
tRp744
ag7
(g9
S'`\xc6\x10?'
tRp745
ag7
(g9
S'`\xc7\t?'
tRp746
ag7
(g9
S'@K\xff>'
tRp747
ag7
(g9
S'\xc0\xa4\xff>'
tRp748
ag7
(g9
S'\x80\x8e\xee>'
tRp749
ag7
(g9
S'@\x9c\xff>'
tRp750
ag7
(g9
S' ?\x02?'
tRp751
ag7
(g9
S'\xc0\x9b\xed>'
tRp752
ag7
(g9
S'`d\n?'
tRp753
ag7
(g9
S'`\xda\x03?'
tRp754
ag7
(g9
S'\xc0\x19\xfe>'
tRp755
ag7
(g9
S'\xa0\x0b\x01?'
tRp756
ag7
(g9
S'\xa0?\x04?'
tRp757
ag7
(g9
S'`\xae\x19?'
tRp758
ag7
(g9
S'\xa0 U?'
tRp759
ag7
(g9
S'\x10 \x8d?'
tRp760
ag7
(g9
S'Pc\xbe?'
tRp761
ag7
(g9
S'P@\xf0?'
tRp762
ag7
(g9
S'\xe8=\x06@'
tRp763
ag7
(g9
S'h S@'
tRp764
ag7
(g9
S'\xe4*\x82@'
tRp765
ag7
(g9
S'$\xc7\xa1@'
tRp766
ag7
(g9
S'\x9c\x7f\xcb@'
tRp767
ag7
(g9
S'\x84\xa8\xfe@'
tRp768
ag7
(g9
S'*\x80\x1aA'
tRp769
ag7
(g9
S'\x1aT6A'
tRp770
ag7
(g9
S'\xe2\x11TA'
tRp771
ag7
(g9
S'\xc5\xcf\x84A'
tRp772
ag7
(g9
S'\xe3\r\x90A'
tRp773
ag7
(g9
S'\xaf\x8c\xb3A'
tRp774
ag7
(g9
S'\xc1\xb0\xbeA'
tRp775
ag7
(g9
S'\x0f\xdc\xdbA'
tRp776
ag7
(g9
S'\x87\xef\xe3A'
tRp777
ag7
(g9
S'\x83\xf5\xf8A'
tRp778
ag7
(g9
S'~\xa9\x02B'
tRp779
ag7
(g9
S'\xdcV\x08B'
tRp780
ag7
(g9
S'\x1e,\rB'
tRp781
ag7
(g9
S'\xfc\x91\x11B'
tRp782
ag7
(g9
S'\xa8g\x15B'
tRp783
ag7
(g9
S'N\xb6\x18B'
tRp784
ag7
(g9
S'\xa4N\x1bB'
tRp785
ag7
(g9
S'f3\x1dB'
tRp786
ag7
(g9
S'Z+\x1eB'
tRp787
ag7
(g9
S'6\x07\x1eB'
tRp788
ag7
(g9
S'\x12\xb6\x1cB'
tRp789
ag7
(g9
S'2l\x17B'
tRp790
ag7
(g9
S'\x10}\x10B'
tRp791
ag7
(g9
S'\x96\x8a\x07B'
tRp792
ag7
(g9
S'\xed\xe2\xf8A'
tRp793
ag7
(g9
S'\xcb\xec\xdeA'
tRp794
ag7
(g9
S'\x95K\xc4A'
tRp795
ag7
(g9
S'u\xb2\xa9A'
tRp796
ag7
(g9
S'\xa3\x17\x91A'
tRp797
ag7
(g9
S':\xe3tA'
tRp798
ag7
(g9
S'r\x05LA'
tRp799
ag7
(g9
S">#'A"
tRp800
ag7
(g9
S'v\x1b\x05A'
tRp801
ag7
(g9
S'\x14J\xd0@'
tRp802
ag7
(g9
S'L*\x9f@'
tRp803
ag7
(g9
S'X\x04r@'
tRp804
ag7
(g9
S'X\xbf\x1e@'
tRp805
ag7
(g9
S'\x98\xf2\x0b@'
tRp806
ag7
(g9
S'\x10T\xc5?'
tRp807
ag7
(g9
S'0\x16\x9d?'
tRp808
ag7
(g9
S' \xa1x?'
tRp809
ag7
(g9
S'\xe0\xf1P?'
tRp810
ag7
(g9
S'\xa0\xaf5?'
tRp811
ag7
(g9
S'\xa0\x9a%?'
tRp812
ag7
(g9
S'`\x95\x14?'
tRp813
ag7
(g9
S'@\xb9\xf7>'
tRp814
ag7
(g9
S'\x80@\xe9>'
tRp815
ag7
(g9
S'\x80\xc8\xd3>'
tRp816
ag7
(g9
S'\x80\xff\xdf>'
tRp817
ag7
(g9
S'\x00\xc4\xdc>'
tRp818
ag7
(g9
S'\x80k\xa8>'
tRp819
ag7
(g9
S'\x00v\xb6>'
tRp820
ag7
(g9
S'\x80\xd6\x9d>'
tRp821
ag7
(g9
S'@p\xb5>'
tRp822
ag7
(g9
S'\x00v\xb7>'
tRp823
ag7
(g9
S'\x80\xc8\xca>'
tRp824
ag7
(g9
S'\x00\x8e\xaf>'
tRp825
ag7
(g9
S'\x00t\xaf>'
tRp826
ag7
(g9
S'\x80\x99\xb7>'
tRp827
ag7
(g9
S'\x80\x9d\xbb>'
tRp828
ag7
(g9
S'\x80\xa9\xd0>'
tRp829
ag7
(g9
S'\xc0m\xd4>'
tRp830
ag7
(g9
S'@l\xe1>'
tRp831
ag7
(g9
S' \xfd\x04?'
tRp832
ag7
(g9
S'`q\x18?'
tRp833
ag7
(g9
S' @6?'
tRp834
ag7
(g9
S'`Y\\?'
tRp835
ag7
(g9
S'\xf0C\x87?'
tRp836
ag7
(g9
S'0\xc6\xdc?'
tRp837
ag7
(g9
S'\xb8k\x14@'
tRp838
ag7
(g9
S'\x88tF@'
tRp839
ag7
(g9
S'\xb4\xee\x81@'
tRp840
ag7
(g9
S'\xbc\x86\xc0@'
tRp841
ag7
(g9
S'\xec\xcb\xde@'
tRp842
ag7
(g9
S'\x12\xdc\x0eA'
tRp843
ag7
(g9
S'\xfej/A'
tRp844
ag7
(g9
S'\xbaXOA'
tRp845
ag7
(g9
S'=c\x81A'
tRp846
ag7
(g9
S'\x1bM\x94A'
tRp847
ag7
(g9
S'g\x06\xa7A'
tRp848
ag7
(g9
S'E\xeb\xb9A'
tRp849
ag7
(g9
S'\xb1+\xcdA'
tRp850
ag7
(g9
S'g\x01\xdfA'
tRp851
ag7
(g9
S'[\xfb\xefA'
tRp852
ag7
(g9
S'\x80X\x00B'
tRp853
ag7
(g9
S'\xeef\x04B'
tRp854
ag7
(g9
S'\x109\x10B'
tRp855
ag7
(g9
S'\xdc\x1d\x16B'
tRp856
ag7
(g9
S'B\xb6\x18B'
tRp857
ag7
(g9
S'\xea-\x1cB'
tRp858
ag7
(g9
S'v\x02\x1fB'
tRp859
ag7
(g9
S'N\xad B'
tRp860
ag7
(g9
S'\x88\xce\x1fB'
tRp861
ag7
(g9
S'\x82\xf0\x1cB'
tRp862
ag7
(g9
S'\xe8\x05\x19B'
tRp863
ag7
(g9
S'\x96\xd5\x13B'
tRp864
ag7
(g9
S'\x98}\x0cB'
tRp865
ag7
(g9
S'J\xbf\x03B'
tRp866
ag7
(g9
S'5r\xf4A'
tRp867
ag7
(g9
S'a+\xe0A'
tRp868
ag7
(g9
S'=\xc2\xc0A'
tRp869
ag7
(g9
S'\x83*\xb6A'
tRp870
ag7
(g9
S'\xb9\xef\xa0A'
tRp871
ag7
(g9
S'O\xb5\x8cA'
tRp872
ag7
(g9
S'\xca\x92tA'
tRp873
ag7
(g9
S'\x16\tCA'
tRp874
ag7
(g9
S'\x82\xb0$A'
tRp875
ag7
(g9
S'\x1a$\tA'
tRp876
ag7
(g9
S'\x94\x01\xe3@'
tRp877
ag7
(g9
S'\xbc\xdd\xb7@'
tRp878
ag7
(g9
S'\x94\xaf\x8f@'
tRp879
ag7
(g9
S'Hp\\@'
tRp880
ag7
(g9
S'x5-@'
tRp881
ag7
(g9
S'xK\x08@'
tRp882
ag7
(g9
S'\x10\x13\xb6?'
tRp883
ag7
(g9
S'p\x8d\xa4?'
tRp884
ag7
(g9
S'0f\x80?'
tRp885
ag7
(g9
S'\xe0*>?'
tRp886
ag7
(g9
S'\xe0\x88\x15?'
tRp887
ag7
(g9
S'\xe0\x1e\x0f?'
tRp888
ag7
(g9
S'\x80\xa8\xf0>'
tRp889
ag7
(g9
S'@p\xcd>'
tRp890
ag7
(g9
S'\xc0\xd9\xb8>'
tRp891
ag7
(g9
S'@.\xa1>'
tRp892
ag7
(g9
S'\x80b\x8b>'
tRp893
ag7
(g9
S'\x00`u>'
tRp894
ag7
(g9
S'\x00\xfd\x84>'
tRp895
ag7
(g9
S'\x80s\x8a>'
tRp896
ag7
(g9
S'\xc0\x83\x94>'
tRp897
ag7
(g9
S'@\n\x80>'
tRp898
ag7
(g9
S'\x00ds>'
tRp899
ag7
(g9
S'\xc0E\x82>'
tRp900
ag7
(g9
S'\xc0\xe9\x8a>'
tRp901
ag7
(g9
S'\x80\x9f\x90>'
tRp902
ag7
(g9
S'\x00\xfaU>'
tRp903
ag7
(g9
S'\x80\xf3\x8c>'
tRp904
ag7
(g9
S'\x00\xa8j>'
tRp905
ag7
(g9
S'\x00\xa0^>'
tRp906
ag7
(g9
S'\xc0\x1b\xb6>'
tRp907
ag7
(g9
S' ,!?'
tRp908
ag7
(g9
S'\xe0\xc2S?'
tRp909
ag7
(g9
S'P\xe5\x85?'
tRp910
ag7
(g9
S'p\x18\x8b?'
tRp911
ag7
(g9
S'\xd0\xcf\xc0?'
tRp912
ag7
(g9
S'\xd0\x88\xe5?'
tRp913
ag7
(g9
S'x\xc0)@'
tRp914
ag7
(g9
S'X"=@'
tRp915
ag7
(g9
S'\xb4\xbb\x8a@'
tRp916
ag7
(g9
S'da\x9e@'
tRp917
ag7
(g9
S'\xb4\x04\xe5@'
tRp918
ag7
(g9
S'*\xab\x1cA'
tRp919
ag7
(g9
S'\xbal;A'
tRp920
ag7
(g9
S'\x06\x8b^A'
tRp921
ag7
(g9
S')\x17\x82A'
tRp922
ag7
(g9
S'\xe5\xd9\x8aA'
tRp923
ag7
(g9
S'\x1b\x84\x9dA'
tRp924
ag7
(g9
S'\xb9\x99\xafA'
tRp925
ag7
(g9
S'\xafM\xc0A'
tRp926
ag7
(g9
S'\x8f \xd0A'
tRp927
ag7
(g9
S'\xdf\xb6\xdfA'
tRp928
ag7
(g9
S'\xdfK\xf6A'
tRp929
ag7
(g9
S'Pn\x02B'
tRp930
ag7
(g9
S'xl\tB'
tRp931
ag7
(g9
S'\xe8\xc4\x0fB'
tRp932
ag7
(g9
S'\xb2o\x15B'
tRp933
ag7
(g9
S'X\xd4\x1aB'
tRp934
ag7
(g9
S'\xbc\x8e B'
tRp935
ag7
(g9
S'\xf8\xee%B'
tRp936
ag7
(g9
S'\xd0/+B'
tRp937
ag7
(g9
S'\x06\xd50B'
tRp938
ag7
(g9
S'\x0472B'
tRp939
ag7
(g9
S'F24B'
tRp940
ag7
(g9
S'&{5B'
tRp941
ag7
(g9
S'8\xdb3B'
tRp942
ag7
(g9
S'\x18W/B'
tRp943
ag7
(g9
S"(\x8e'B"
tRp944
ag7
(g9
S'R\x13\x1dB'
tRp945
ag7
(g9
S'@\x13\x11B'
tRp946
ag7
(g9
S'\x10\xb7\x03B'
tRp947
ag7
(g9
S'\x95#\xeaA'
tRp948
ag7
(g9
S'A\xcd\xcaA'
tRp949
ag7
(g9
S'q\xc5\xabA'
tRp950
ag7
(g9
S'\x19\x0f\x8eA'
tRp951
ag7
(g9
S'\xca\xedeA'
tRp952
ag7
(g9
S'\x9a\xd85A'
tRp953
ag7
(g9
S'\xa6\x16\rA'
tRp954
ag7
(g9
S'\x94\x89\xda@'
tRp955
ag7
(g9
S'\xdc\xae\xaa@'
tRp956
ag7
(g9
S'\xa4p\x86@'
tRp957
ag7
(g9
S'\x889R@'
tRp958
ag7
(g9
S'h\xc1%@'
tRp959
ag7
(g9
S'Pr\xee?'
tRp960
ag7
(g9
S'\xf0\xd9\xd9?'
tRp961
ag7
(g9
S'\xf0\xf1\xb9?'
tRp962
ag7
(g9
S'\xd0\xc8\x9b?'
tRp963
ag7
(g9
S'\x90U\x83?'
tRp964
ag7
(g9
S' Op?'
tRp965
ag7
(g9
S'\xe0\xf7b?'
tRp966
ag7
(g9
S'\xa0\xccP?'
tRp967
ag7
(g9
S'\xe0@B?'
tRp968
ag7
(g9
S'`\x08<?'
tRp969
ag7
(g9
S'\xe0\xcd6?'
tRp970
ag7
(g9
S'`o-?'
tRp971
ag7
(g9
S' `.?'
tRp972
ag7
(g9
S' \xc2-?'
tRp973
ag7
(g9
S'\xe0#1?'
tRp974
ag7
(g9
S'\xe0\x862?'
tRp975
ag7
(g9
S'\xe0\x01)?'
tRp976
ag7
(g9
S' \x02%?'
tRp977
ag7
(g9
S"\xa0D'?"
tRp978
ag7
(g9
S'`\x89*?'
tRp979
ag7
(g9
S' \x8c3?'
tRp980
ag7
(g9
S'\xe0\x124?'
tRp981
ag7
(g9
S' \xb3??'
tRp982
ag7
(g9
S'`\x82Q?'
tRp983
ag7
(g9
S'`8M?'
tRp984
ag7
(g9
S' \xedW?'
tRp985
ag7
(g9
S'\xa0=y?'
tRp986
ag7
(g9
S'\x10\x80\x96?'
tRp987
ag7
(g9
S'P\xdb\xc3?'
tRp988
ag7
(g9
S'0\xbd\xfc?'
tRp989
ag7
(g9
S'\x18\x81#@'
tRp990
ag7
(g9
S'x@S@'
tRp991
ag7
(g9
S'\xac\x10\x8a@'
tRp992
ag7
(g9
S'\xd4\xa9\xaa@'
tRp993
ag7
(g9
S'4L\xca@'
tRp994
asS'adc'
p995
(lp996
F899
aF899
aF899
aF898
aF899
aF899
aF898
aF899
aF898
aF899
aF899
aF898
aF899
aF899
aF898
aF899
aF899
aF898
aF897
aF899
aF898
aF898
aF898
aF898
aF899
aF898
aF899
aF899
aF899
aF899
aF899
aF899
aF898
aF898
aF899
aF899
aF898
aF898
aF875
aF719
aF665
aF651
aF632
aF532
aF441
aF386
aF353
aF311
aF272
aF236
aF216
aF197
aF171
aF172
aF151
aF156
aF141
aF153
aF134
aF106
aF92
aF74
aF95
aF68
aF84
aF88
aF146
aF78
aF61
aF65
aF68
aF67
aF97
aF106
aF96
aF105
aF112
aF103
aF120
aF126
aF143
aF171
aF196
aF201
aF262
aF287
aF358
aF411
aF458
aF484
aF506
aF529
aF553
aF585
aF591
aF591
aF592
aF585
aF587
aF587
aF596
aF599
aF591
aF561
aF546
aF467
aF431
aF338
aF286
aF245
aF213
aF189
aF169
aF172
aF138
aF151
aF129
aF121
aF121
aF115
aF113
aF94
aF81
aF73
aF91
aF111
aF69
aF53
aF47
aF36
aF36
aF36
aF37
aF38
aF39
aF41
aF44
aF49
aF56
aF68
aF81
aF102
aF125
aF152
aF176
aF212
aF245
aF280
aF333
aF381
aF467
aF472
aF467
aF465
aF468
aF476
aF485
aF495
aF488
aF483
aF475
aF453
aF433
aF418
aF390
aF326
aF262
aF201
aF149
aF117
aF100
aF87
aF79
aF69
aF62
aF57
aF53
aF49
aF77
aF60
aF92
aF63
aF64
aF64
aF63
aF57
aF64
aF58
aF38
aF69
aF65
aF90
aF79
aF63
aF73
aF87
aF108
aF104
aF112
aF80
aF86
aF99
aF139
aF114
aF112
aF137
aF154
aF169
aF202
aF187
aF190
aF194
aF199
aF196
aF220
aF260
aF267
aF233
aF220
aF215
aF267
aF271
aF270
aF285
aF264
aF265
aF261
aF258
aF219
aF214
aF265
aF159
aF135
aF127
aF131
aF126
aF127
aF122
aF125
aF121
aF124
aF113
aF88
aF91
aF72
aF72
aF70
aF61
aF62
aF66
aF72
aF83
aF138
aF120
aF101
aF91
aF105
aF77
aF71
aF59
aF81
aF122
aF84
aF90
aF99
aF80
aF88
aF100
aF128
aF153
aF176
aF181
aF191
aF214
aF231
aF248
aF242
aF247
aF261
aF263
aF273
aF282
aF290
aF285
aF286
aF283
aF280
aF279
aF278
aF278
aF278
aF279
aF279
aF278
aF278
aF281
aF277
aF274
aF270
aF255
aF242
aF217
aF193
aF169
aF145
aF132
aF128
aF115
aF108
aF106
aF109
aF95
aF108
aF82
aF52
aF57
aF55
aF55
aF55
aF54
aF54
aF53
aF84
aF84
aF71
aF78
aF93
aF97
aF78
aF73
aF75
aF77
aF77
aF75
aF80
aF106
aF96
aF100
aF107
aF131
aF154
aF167
aF176
aF181
aF189
aF193
aF206
aF206
aF198
aF199
aF205
aF211
aF233
aF242
aF243
aF245
aF245
aF244
aF244
aF244
aF244
aF243
aF243
aF243
aF243
aF243
aF243
aF243
aF242
aF242
aF242
aF237
aF234
aF233
aF227
aF222
aF195
aF200
aF154
aF131
aF116
aF106
aF101
aF96
aF91
aF91
aF176
aF122
aF48
aF50
aF99
aF65
aF103
aF111
aF101
aF113
aF95
aF96
aF105
aF93
aF87
aF62
aF86
aF58
aF115
aF81
aF60
aF62
aF65
aF69
aF71
aF71
aF80
aF91
aF105
aF121
aF137
aF158
aF203
aF245
aF295
aF311
aF321
aF357
aF355
aF375
aF334
aF344
aF339
aF422
aF423
aF408
aF407
aF415
aF395
aF378
aF378
aF376
aF374
aF371
aF368
aF368
aF366
aF365
aF362
aF359
aF355
aF349
aF323
aF288
aF266
aF246
aF208
aF186
aF137
aF113
aF107
aF93
aF81
aF73
aF66
aF63
aF60
aF58
aF54
aF52
aF51
aF51
aF50
aF49
aF57
aF61
aF60
aF59
aF59
aF59
aF59
aF59
aF60
aF60
aF61
aF62
aF64
aF66
aF70
aF76
aF84
aF94
aF109
aF126
aF156
aF190
aF216
aF243
aF250
aF252
aF261
aF263
aF265
aF265
aF263
aF263
aF262
aF263
aF264
aF264
aF264
aF263
aF262
aF261
aF261
aF261
aF261
aF260
aF260
aF259
aF259
aF259
aF259
aF259
aF257
aF252
aF246
aF241
aF237
aF217
aF192
aF172
aF155
aF136
aF119
aF110
aF105
aF129
aF139
aF98
aF64
aF61
aF59
aF58
aF58
aF97
aF68
aF92
aF63
aF53
aF49
aF46
aF40
aF55
aF51
aF56
aF49
aF39
aF40
aF37
aF38
aF38
aF39
aF41
aF43
aF44
aF54
aF65
aF77
aF94
aF129
aF181
aF248
aF301
aF325
aF315
aF310
aF308
aF305
aF303
aF301
aF299
aF298
aF297
aF296
aF295
aF295
aF295
aF294
aF295
aF294
aF293
aF293
aF292
aF291
aF291
aF290
aF290
aF291
aF290
aF289
aF287
aF279
aF268
aF244
aF216
aF172
aF144
aF127
aF106
aF90
aF77
aF70
aF74
aF62
aF64
aF57
aF52
aF48
aF46
aF45
aF43
aF39
aF39
aF41
aF56
aF83
aF68
aF65
aF51
aF92
aF89
aF105
aF99
aF54
aF59
aF62
aF72
aF65
aF74
aF72
aF87
aF114
aF125
aF140
aF221
aF254
aF278
aF278
aF297
aF291
aF286
aF284
aF296
aF273
aF277
aF291
aF292
aF299
aF282
aF306
aF280
aF276
aF265
aF266
aF252
aF258
aF258
aF274
aF283
aF302
aF308
aF308
aF314
aF304
aF277
aF267
aF252
aF227
aF197
aF169
aF148
aF127
aF106
aF109
aF99
aF173
aF66
aF66
aF53
aF48
aF48
aF61
aF50
aF51
aF47
aF75
aF64
aF70
aF80
aF112
aF90
aF73
aF59
aF69
aF79
aF76
aF77
aF77
aF78
aF79
aF81
aF84
aF87
aF81
aF90
aF104
aF125
aF173
aF645
aF569
aF549
aF542
aF533
aF531
aF530
aF527
aF523
aF524
aF519
aF517
aF514
aF512
aF513
aF518
aF514
aF511
aF508
aF507
aF507
aF509
aF509
aF508
aF507
aF505
aF504
aF503
aF505
aF504
aF504
aF493
aF461
aF427
aF412
aF384
aF331
aF260
aF244
aF201
aF184
aF148
aF127
aF112
aF101
aF92
aF83
aF73
aF72
aF70
aF69
aF67
aF67
aF66
aF65
aF65
aF64
aF64
aF64
aF63
aF63
aF63
aF63
aF63
aF64
aF65
aF67
aF71
aF76
aF82
aF92
aF104
aF128
aF155
aF197
aF273
aF339
aF433
aF474
aF491
aF479
aF477
aF478
aF481
aF483
aF484
aF484
aF483
aF479
aF478
aF477
aF477
aF479
aF483
aF481
aF480
aF478
aF476
aF476
aF480
aF481
aF483
aF480
aF478
aF474
aF469
aF457
aF453
aF433
aF409
aF355
aF301
aF254
aF215
aF180
aF147
aF122
aF113
aF102
aF100
aF89
aF85
aF81
aF78
aF76
aF75
aF74
aF73
aF72
aF71
aF70
aF69
aF69
aF68
aF68
aF68
aF69
aF69
aF70
aF71
aF72
aF74
aF78
aF84
aF90
aF98
aF106
aF117
aF138
aF162
aF185
aF247
aF306
aF404
aF413
aF438
aF469
aF492
aF496
aF497
aF504
aF503
aF501
aF499
aF496
aF496
aF500
aF503
aF504
aF503
aF499
aF499
aF497
aF498
aF501
aF502
aF501
aF499
aF497
aF495
aF474
aF423
aF411
aF411
aF413
aF381
aF328
aF305
aF265
aF213
aF173
aF142
aF125
aF110
aF101
aF93
aF85
aF82
aF80
aF76
aF74
aF73
aF71
aF70
aF69
aF68
aF67
aF67
aF66
aF66
aF68
aF65
aF81
aF72
aF64
aF61
aF61
aF62
aF63
aF64
aF66
aF69
aF74
aF84
aF98
aF120
aF163
aF217
aF289
aF311
aF319
aF344
aF376
aF397
aF399
aF396
aF393
aF391
aF390
aF392
aF396
aF397
aF397
aF395
aF392
aF391
aF392
aF395
aF397
aF397
aF394
aF392
aF390
aF389
aF387
aF385
aF383
aF379
aF379
aF376
aF364
aF343
aF310
aF277
aF240
aF200
aF175
aF156
aF141
aF126
as.