(dp1
S'pull_up'
p2
F200
sS'contact_area'
p3
F0.0001
sS'adc_bias'
p4
F1023
sS'ft'
p5
(lp6
cnumpy.core.multiarray
scalar
p7
(cnumpy
dtype
p8
(S'f4'
I0
I1
tRp9
(I3
S'<'
NNNI-1
I-1
I0
tbS'\x00\x1c\x83\xbc'
tRp10
ag7
(g9
S'\x00\x80\x08\xba'
tRp11
ag7
(g9
S'\x00\x00\x94\xb8'
tRp12
ag7
(g9
S'\x00\x00\x94\xb8'
tRp13
ag7
(g9
S'\x000\x9e<'
tRp14
ag7
(g9
S'\x00\xa4\x8c<'
tRp15
ag7
(g9
S'\x00\\\xd5<'
tRp16
ag7
(g9
S'\x00\xd8\xe7<'
tRp17
ag7
(g9
S'\x00\x007\xbb'
tRp18
ag7
(g9
S'\x00\xcer='
tRp19
ag7
(g9
S'\x00\xd0\xa9;'
tRp20
ag7
(g9
S'\x00\x10\xb4;'
tRp21
ag7
(g9
S'\x00 \x10;'
tRp22
ag7
(g9
S'\x00\x10\xb2;'
tRp23
ag7
(g9
S"\x00\x8a'="
tRp24
ag7
(g9
S'\x00\x80\xf2\xba'
tRp25
ag7
(g9
S'\x00\xa4\xc3<'
tRp26
ag7
(g9
S'\x00\x04\r='
tRp27
ag7
(g9
S'\x00\x84\xed<'
tRp28
ag7
(g9
S'\x00hH\xbc'
tRp29
ag7
(g9
S'\x00JY='
tRp30
ag7
(g9
S'\x00l\xcd<'
tRp31
ag7
(g9
S'\x00\xf4\xe9<'
tRp32
ag7
(g9
S'\x00\xa4=='
tRp33
ag7
(g9
S'\x00\xe2\x81='
tRp34
ag7
(g9
S'\x00\x18\xf2<'
tRp35
ag7
(g9
S'\x00x\xfe<'
tRp36
ag7
(g9
S'\x00\x9c\xf6<'
tRp37
ag7
(g9
S'\x00pd<'
tRp38
ag7
(g9
S'\x00 \x8b<'
tRp39
ag7
(g9
S'\x00\xfc$='
tRp40
ag7
(g9
S'\x00\xc0\xee\xba'
tRp41
ag7
(g9
S'\x002\x02\xbd'
tRp42
ag7
(g9
S'\x00\xfc\xd1\xbc'
tRp43
ag7
(g9
S'\x00\xc6g='
tRp44
ag7
(g9
S'\x00\xc6\x83='
tRp45
ag7
(g9
S'\x00\x8al='
tRp46
ag7
(g9
S'\x00\nf='
tRp47
ag7
(g9
S'\x00\xdcn='
tRp48
ag7
(g9
S'\x00(P<'
tRp49
ag7
(g9
S'\x00\xe0b\xbb'
tRp50
ag7
(g9
S'\x00\x94\x8a\xbc'
tRp51
ag7
(g9
S'\x00\xf0%\xbc'
tRp52
ag7
(g9
S'\x00\xe47='
tRp53
ag7
(g9
S'\x00\xd8?\xbc'
tRp54
ag7
(g9
S'\x00|\xd8\xbc'
tRp55
ag7
(g9
S'\x00`\xd9\xbb'
tRp56
ag7
(g9
S'\x00\xf6\x9f='
tRp57
ag7
(g9
S'\x80\xaaA>'
tRp58
ag7
(g9
S'\x00\x82\x97>'
tRp59
ag7
(g9
S'\x80c\xb6>'
tRp60
ag7
(g9
S'\x80\xb4\xe9>'
tRp61
ag7
(g9
S'\x80\x82\x0b?'
tRp62
ag7
(g9
S'\x80<\x0e?'
tRp63
ag7
(g9
S'@\xae\xf4>'
tRp64
ag7
(g9
S'\x80\xa1\xa5>'
tRp65
ag7
(g9
S'\x00)s>'
tRp66
ag7
(g9
S'\x00\xe3->'
tRp67
ag7
(g9
S'\x80u\x12>'
tRp68
ag7
(g9
S'\x00\x90\x00>'
tRp69
ag7
(g9
S'\x00\x7f\xf2='
tRp70
ag7
(g9
S'\x00\xd0\xa4='
tRp71
ag7
(g9
S'\x00\xe1\x81='
tRp72
ag7
(g9
S'\x00\xa8w<'
tRp73
ag7
(g9
S'\x00\xfcq='
tRp74
ag7
(g9
S"\x00\x0e'="
tRp75
ag7
(g9
S'\x00>6='
tRp76
ag7
(g9
S'\x00\xcc)='
tRp77
ag7
(g9
S'\x00@\xa0;'
tRp78
ag7
(g9
S'\x00\x0e\xa4='
tRp79
ag7
(g9
S'\x80\x9c~>'
tRp80
ag7
(g9
S'\xc0\xfd\xef>'
tRp81
ag7
(g9
S'\x80xE?'
tRp82
ag7
(g9
S'\x90\xee\x89?'
tRp83
ag7
(g9
S'\x90g\xb7?'
tRp84
ag7
(g9
S'\x98+\x04@'
tRp85
ag7
(g9
S'\x98+\x04@'
tRp86
ag7
(g9
S'\xc8\x85J@'
tRp87
ag7
(g9
S'x\x04\x7f@'
tRp88
ag7
(g9
S'\x0c\xd1\x99@'
tRp89
ag7
(g9
S'\xf41\xb6@'
tRp90
ag7
(g9
S'\x9c\xbb\xd6@'
tRp91
ag7
(g9
S'\xf4r\xfe@'
tRp92
ag7
(g9
S'n-\x16A'
tRp93
ag7
(g9
S'\xca\xee.A'
tRp94
ag7
(g9
S'r\xeeIA'
tRp95
ag7
(g9
S'\xba\xf7eA'
tRp96
ag7
(g9
S'\xd9\x88\x8aA'
tRp97
ag7
(g9
S'\xe9\xa2\x9aA'
tRp98
ag7
(g9
S'\xf7\xe0\xaaA'
tRp99
ag7
(g9
S'[\xa1\xbbA'
tRp100
ag7
(g9
S'\x85+\xccA'
tRp101
ag7
(g9
S'\xb7\xd6\xdcA'
tRp102
ag7
(g9
S'\xbf\xc8\xf7A'
tRp103
ag7
(g9
S'\xa2\x9d\x00B'
tRp104
ag7
(g9
S'\x18\x7f\nB'
tRp105
ag7
(g9
S'8\x03\x14B'
tRp106
ag7
(g9
S'h\x08!B'
tRp107
ag7
(g9
S"\xc2\x87'B"
tRp108
ag7
(g9
S'HY,B'
tRp109
ag7
(g9
S'8\xb9/B'
tRp110
ag7
(g9
S'\xe0G1B'
tRp111
ag7
(g9
S'\x8c\x910B'
tRp112
ag7
(g9
S'\xf8\xb6,B'
tRp113
ag7
(g9
S'\xc2\x99%B'
tRp114
ag7
(g9
S'\xa4t\x1cB'
tRp115
ag7
(g9
S'rj\x11B'
tRp116
ag7
(g9
S'\xf2\xb5\x05B'
tRp117
ag7
(g9
S'\x1f\xd3\xf4A'
tRp118
ag7
(g9
S'\xf5\x86\xdeA'
tRp119
ag7
(g9
S'q\x08\xc7A'
tRp120
ag7
(g9
S'uM\xb1A'
tRp121
ag7
(g9
S'\xc1\xcf\x9cA'
tRp122
ag7
(g9
S'\r\xd5\x88A'
tRp123
ag7
(g9
S'\xca.lA'
tRp124
ag7
(g9
S'\x1e\xb5IA'
tRp125
ag7
(g9
S'N\xdf+A'
tRp126
ag7
(g9
S'"E\x13A'
tRp127
ag7
(g9
S'\x0c\xad\xfd@'
tRp128
ag7
(g9
S'\\\xc4\xc9@'
tRp129
ag7
(g9
S'\x04\xd7\xbb@'
tRp130
ag7
(g9
S'\xe47\x9b@'
tRp131
ag7
(g9
S'\xfc\xc5\x88@'
tRp132
ag7
(g9
S'\xd8\xf3v@'
tRp133
ag7
(g9
S'\xa8\xb5p@'
tRp134
ag7
(g9
S'x._@'
tRp135
ag7
(g9
S'x\x17P@'
tRp136
ag7
(g9
S'\xf8\xe1A@'
tRp137
ag7
(g9
S'\xf842@'
tRp138
ag7
(g9
S'h60@'
tRp139
ag7
(g9
S'\xa8Q#@'
tRp140
ag7
(g9
S'(\xcc\x1e@'
tRp141
ag7
(g9
S'\xd8\x92\x1a@'
tRp142
ag7
(g9
S'\xc8\x0c\x12@'
tRp143
ag7
(g9
S'\xc8-\x0c@'
tRp144
ag7
(g9
S'x\xaf\x08@'
tRp145
ag7
(g9
S'x\xaf\x08@'
tRp146
ag7
(g9
S'\xe8\xff\x11@'
tRp147
ag7
(g9
S'\xa8s\x1a@'
tRp148
ag7
(g9
S'\xa8s\x1a@'
tRp149
ag7
(g9
S'\x18\xae3@'
tRp150
ag7
(g9
S'\x08\xcdE@'
tRp151
ag7
(g9
S'\x88\xefW@'
tRp152
ag7
(g9
S'(\xd2l@'
tRp153
ag7
(g9
S'\xbc\xfc\x85@'
tRp154
ag7
(g9
S'\x0c\xa1\xa6@'
tRp155
ag7
(g9
S'\xd4\xe1\xd2@'
tRp156
ag7
(g9
S'r\x15\x0eA'
tRp157
ag7
(g9
S'\xca\xd7*A'
tRp158
ag7
(g9
S'\xfeh:A'
tRp159
ag7
(g9
S'\xa2%mA'
tRp160
ag7
(g9
S'e)\x87A'
tRp161
ag7
(g9
S'g\xbd\x98A'
tRp162
ag7
(g9
S'\x19\xbf\xb4A'
tRp163
ag7
(g9
S'\xbd\x9f\xc6A'
tRp164
ag7
(g9
S'\x05\x9a\xcfA'
tRp165
ag7
(g9
S'}\xf4\xdfA'
tRp166
ag7
(g9
S'K\xc8\xeeA'
tRp167
ag7
(g9
S',\xf3\x00B'
tRp168
ag7
(g9
S'\x10_\x06B'
tRp169
ag7
(g9
S'\xe8N\tB'
tRp170
ag7
(g9
S'D\xa7\x0eB'
tRp171
ag7
(g9
S'L\xd6\x15B'
tRp172
ag7
(g9
S'\xd6\x03\x18B'
tRp173
ag7
(g9
S'\xc4\xf5\x1eB'
tRp174
ag7
(g9
S'\xc6T#B'
tRp175
ag7
(g9
S"\xa4n'B"
tRp176
ag7
(g9
S'j\xd9*B'
tRp177
ag7
(g9
S'\xb2\xc7,B'
tRp178
ag7
(g9
S'j\xfb,B'
tRp179
ag7
(g9
S'\x90\xab,B'
tRp180
ag7
(g9
S'\xe0\xc4(B'
tRp181
ag7
(g9
S'\xdc_ B'
tRp182
ag7
(g9
S'\xcc\xcc\x1cB'
tRp183
ag7
(g9
S'\x94"\x14B'
tRp184
ag7
(g9
S'\x84V\x08B'
tRp185
ag7
(g9
S'\xbfs\xe5A'
tRp186
ag7
(g9
S'\xbfs\xe5A'
tRp187
ag7
(g9
S'\xc7\xfe\xb8A'
tRp188
ag7
(g9
S'\x7f\xff\x91A'
tRp189
ag7
(g9
S'FMyA'
tRp190
ag7
(g9
S'\xc6\xf4TA'
tRp191
ag7
(g9
S'\xc6\xf4TA'
tRp192
ag7
(g9
S'\xae_%A'
tRp193
ag7
(g9
S'N\xfe\x0bA'
tRp194
ag7
(g9
S'\x8c2\xed@'
tRp195
ag7
(g9
S'\x8cu\xcb@'
tRp196
ag7
(g9
S'\x0c\xf7\xa5@'
tRp197
ag7
(g9
S'<\xd7\x91@'
tRp198
ag7
(g9
S'\x0c\x99\x8b@'
tRp199
ag7
(g9
S'\x88\x01s@'
tRp200
ag7
(g9
S'\x88\x8cc@'
tRp201
ag7
(g9
S'8\xd2V@'
tRp202
ag7
(g9
S'X\x9aH@'
tRp203
ag7
(g9
S'H\xc7C@'
tRp204
ag7
(g9
S'\xf8\xd4:@'
tRp205
ag7
(g9
S'xc6@'
tRp206
ag7
(g9
S'\x18\xa66@'
tRp207
ag7
(g9
S'\x08H=@'
tRp208
ag7
(g9
S'\xf8\xd7D@'
tRp209
ag7
(g9
S'\xe8\x1dF@'
tRp210
ag7
(g9
S'\x08\x9bS@'
tRp211
ag7
(g9
S'\x886_@'
tRp212
ag7
(g9
S'\xd8Fn@'
tRp213
ag7
(g9
S'\xe8[~@'
tRp214
ag7
(g9
S'\xcc\xb5\x88@'
tRp215
ag7
(g9
S'\x04_\x8d@'
tRp216
ag7
(g9
S'\x0c\x81\x9a@'
tRp217
ag7
(g9
S'\xb4!\xbd@'
tRp218
ag7
(g9
S'\xdc\x18\xe4@'
tRp219
ag7
(g9
S'>\xd6\x08A'
tRp220
ag7
(g9
S'\x92\xd0\x13A'
tRp221
ag7
(g9
S'\x86\xdd9A'
tRp222
ag7
(g9
S'\x1azVA'
tRp223
ag7
(g9
S':\x1ffA'
tRp224
ag7
(g9
S'\x0b\x04\x8dA'
tRp225
ag7
(g9
S'\xc7\xf7\xa8A'
tRp226
ag7
(g9
S'Y\xe6\xb2A'
tRp227
ag7
(g9
S'\xff\xba\xbdA'
tRp228
ag7
(g9
S'\xa5\xa8\xddA'
tRp229
ag7
(g9
S"'\xb9\xf2A"
tRp230
ag7
(g9
S'\x00V\x08B'
tRp231
ag7
(g9
S'\xe2\xfd\x0cB'
tRp232
ag7
(g9
S'\xe2\xe6\x19B'
tRp233
ag7
(g9
S'P4!B'
tRp234
ag7
(g9
S'\xaa (B'
tRp235
ag7
(g9
S'p7/B'
tRp236
ag7
(g9
S'\xd4=6B'
tRp237
ag7
(g9
S'\xda\xf9<B'
tRp238
ag7
(g9
S' \x91CB'
tRp239
ag7
(g9
S'\xb6fJB'
tRp240
ag7
(g9
S'&APB'
tRp241
ag7
(g9
S'PVTB'
tRp242
ag7
(g9
S'\xe2\x1cVB'
tRp243
ag7
(g9
S'\xec$UB'
tRp244
ag7
(g9
S'|\x85QB'
tRp245
ag7
(g9
S'\xc2\xe5KB'
tRp246
ag7
(g9
S'\x1a4EB'
tRp247
ag7
(g9
S'\x94\x0f9B'
tRp248
ag7
(g9
S'\xccP/B'
tRp249
ag7
(g9
S'\x8a\x10#B'
tRp250
ag7
(g9
S'",\x14B'
tRp251
ag7
(g9
S'\xd6x\x02B'
tRp252
ag7
(g9
S'\xe96\xe0A'
tRp253
ag7
(g9
S'\t\x11\xbdA'
tRp254
ag7
(g9
S'W\x80\x9cA'
tRp255
ag7
(g9
S'\xfaB\x7fA'
tRp256
ag7
(g9
S'&\xa6MA'
tRp257
ag7
(g9
S"n3'A"
tRp258
ag7
(g9
S'N[\nA'
tRp259
ag7
(g9
S'\xbc\x0e\xe9@'
tRp260
ag7
(g9
S'lC\xc4@'
tRp261
ag7
(g9
S'\xcc\xaf\xa5@'
tRp262
ag7
(g9
S'\xcc\xea\x8c@'
tRp263
ag7
(g9
S'\xd8"v@'
tRp264
ag7
(g9
S'H\xb9[@'
tRp265
ag7
(g9
S'8\xacI@'
tRp266
ag7
(g9
S'8i;@'
tRp267
ag7
(g9
S'\xb8\x8c.@'
tRp268
ag7
(g9
S'H\xda(@'
tRp269
ag7
(g9
S'h\xee\x1d@'
tRp270
ag7
(g9
S'\xa8\xc1\x1c@'
tRp271
ag7
(g9
S'\xd8(\x1a@'
tRp272
ag7
(g9
S'h\x92\x1f@'
tRp273
ag7
(g9
S'\xc8\xf0(@'
tRp274
ag7
(g9
S'\xe8\xb0/@'
tRp275
ag7
(g9
S'\x98\xc1/@'
tRp276
ag7
(g9
S'\x88i1@'
tRp277
ag7
(g9
S'\xa8\x0f:@'
tRp278
ag7
(g9
S'\x98\xa8G@'
tRp279
ag7
(g9
S'\x88\xa8X@'
tRp280
ag7
(g9
S'\xb8wl@'
tRp281
ag7
(g9
S'\xa4&\x8d@'
tRp282
ag7
(g9
S'\x14\x1c\x94@'
tRp283
ag7
(g9
S'\xa4.\xb5@'
tRp284
ag7
(g9
S'\xbc\xe6\xc5@'
tRp285
ag7
(g9
S'\xec\xe8\xf9@'
tRp286
ag7
(g9
S'~\xfd\x06A'
tRp287
ag7
(g9
S'\xde\xd5/A'
tRp288
ag7
(g9
S'r\xd4?A'
tRp289
ag7
(g9
S'\xfa\x15rA'
tRp290
ag7
(g9
S'{\xaf\x8aA'
tRp291
ag7
(g9
S'\xad\xa2\x9dA'
tRp292
ag7
(g9
S'S\xda\xb2A'
tRp293
ag7
(g9
S'\xeb\x12\xc8A'
tRp294
ag7
(g9
S'\x9f\xf1\xdcA'
tRp295
ag7
(g9
S'W\xe3\xf0A'
tRp296
ag7
(g9
S'\xf0\x9d\x02B'
tRp297
ag7
(g9
S'J\xa5\x07B'
tRp298
ag7
(g9
S'RH\x16B'
tRp299
ag7
(g9
S'\xdeS\x1eB'
tRp300
ag7
(g9
S'\xac>%B'
tRp301
ag7
(g9
S'\xc2\xf7+B'
tRp302
ag7
(g9
S'\xd292B'
tRp303
ag7
(g9
S'\xf4W7B'
tRp304
ag7
(g9
S'\xd0\xf4=B'
tRp305
ag7
(g9
S'*RBB'
tRp306
ag7
(g9
S'BZFB'
tRp307
ag7
(g9
S'\xcc;JB'
tRp308
ag7
(g9
S'\xd0\x12LB'
tRp309
ag7
(g9
S'\xb2\x1aNB'
tRp310
ag7
(g9
S'\\\x8ePB'
tRp311
ag7
(g9
S'\xda\x1bOB'
tRp312
ag7
(g9
S'N\x86KB'
tRp313
ag7
(g9
S'\x8a\x94EB'
tRp314
ag7
(g9
S' \x8bAB'
tRp315
ag7
(g9
S'\x1a\x8d7B'
tRp316
ag7
(g9
S'\xf4\xfd$B'
tRp317
ag7
(g9
S'\x0c\xb5\x15B'
tRp318
ag7
(g9
S'6\xca\x04B'
tRp319
ag7
(g9
S'g\xca\xe2A'
tRp320
ag7
(g9
S'\xd9\xcd\xbcA'
tRp321
ag7
(g9
S'\x0f>\x9aA'
tRp322
ag7
(g9
S'6\x10xA'
tRp323
ag7
(g9
S'rd.A'
tRp324
ag7
(g9
S'~\xf6\x18A'
tRp325
ag7
(g9
S'\\\xdd\xcb@'
tRp326
ag7
(g9
S'\xd4Z\xb3@'
tRp327
ag7
(g9
S'X\xf7n@'
tRp328
ag7
(g9
S'8\x97O@'
tRp329
ag7
(g9
S'8\xcd\x0f@'
tRp330
ag7
(g9
S'\xd8\xb0\x01@'
tRp331
ag7
(g9
S'\x10j\xd1?'
tRp332
ag7
(g9
S'\xf0$\xa9?'
tRp333
ag7
(g9
S'\x80\xfb\x89?'
tRp334
ag7
(g9
S'\xa0#a?'
tRp335
ag7
(g9
S'@\xfb<?'
tRp336
ag7
(g9
S'\xe0[=?'
tRp337
ag7
(g9
S'\xc0\x0c-?'
tRp338
ag7
(g9
S'@.!?'
tRp339
ag7
(g9
S'\x80o\x1e?'
tRp340
ag7
(g9
S'\x00\x94\x13?'
tRp341
ag7
(g9
S'\xa0&\x0b?'
tRp342
ag7
(g9
S'\xc0d\x04?'
tRp343
ag7
(g9
S'\xe0\xf9\x03?'
tRp344
ag7
(g9
S'\xe0\xdf\x0f?'
tRp345
ag7
(g9
S'`\x9b\t?'
tRp346
ag7
(g9
S'\x80\xde\x10?'
tRp347
ag7
(g9
S'@\xb4\x00?'
tRp348
ag7
(g9
S'\xc0\xc1\x0b?'
tRp349
ag7
(g9
S' \x01(?'
tRp350
ag7
(g9
S'`T\\?'
tRp351
ag7
(g9
S'\x10f\xc1?'
tRp352
ag7
(g9
S'\x88@\x13@'
tRp353
ag7
(g9
S'h\x81Z@'
tRp354
ag7
(g9
S'\\\xf0\x9e@'
tRp355
ag7
(g9
S'\x948\xdf@'
tRp356
ag7
(g9
S'\xde)\x13A'
tRp357
ag7
(g9
S'\xb6\xcd4A'
tRp358
ag7
(g9
S'"ZUA'
tRp359
ag7
(g9
S'\x8e:xA'
tRp360
ag7
(g9
S'?\x1a\x8dA'
tRp361
ag7
(g9
S'\xc1\xd1\x9dA'
tRp362
ag7
(g9
S'u\r\xaeA'
tRp363
ag7
(g9
S'\xe5\xc9\xbdA'
tRp364
ag7
(g9
S'\xc3>\xcdA'
tRp365
ag7
(g9
S'S\xd6\xdbA'
tRp366
ag7
(g9
S'\xc9\xd1\xe9A'
tRp367
ag7
(g9
S'\xfd]\xf7A'
tRp368
ag7
(g9
S'\x06:\x02B'
tRp369
ag7
(g9
S'\x90t\x08B'
tRp370
ag7
(g9
S'\xa2(\x0fB'
tRp371
ag7
(g9
S'\xc2T\x16B'
tRp372
ag7
(g9
S'`\xa3\x1dB'
tRp373
ag7
(g9
S'\x84r%B'
tRp374
ag7
(g9
S'T2-B'
tRp375
ag7
(g9
S'VY5B'
tRp376
ag7
(g9
S'X\x95=B'
tRp377
ag7
(g9
S'\x1crEB'
tRp378
ag7
(g9
S'\x00\xf7KB'
tRp379
ag7
(g9
S'8jWB'
tRp380
ag7
(g9
S"\x9c'\\B"
tRp381
ag7
(g9
S'\xfc0`B'
tRp382
ag7
(g9
S'\xfc0`B'
tRp383
ag7
(g9
S'FHeB'
tRp384
ag7
(g9
S'\x8c\xc2eB'
tRp385
ag7
(g9
S'\x16[eB'
tRp386
ag7
(g9
S'J\xa1bB'
tRp387
ag7
(g9
S'zS^B'
tRp388
ag7
(g9
S'\x10\xb2YB'
tRp389
ag7
(g9
S'\xb4\xfcSB'
tRp390
ag7
(g9
S'"\xf4LB'
tRp391
ag7
(g9
S'\xceECB'
tRp392
ag7
(g9
S'\x98\xeb7B'
tRp393
ag7
(g9
S'\xc2M,B'
tRp394
ag7
(g9
S'\xb0\xc3\x1fB'
tRp395
ag7
(g9
S'\x84\xed\x11B'
tRp396
ag7
(g9
S'\xc4\xed\x01B'
tRp397
ag7
(g9
S'U\xfe\xe0A'
tRp398
ag7
(g9
S'\x87p\xbdA'
tRp399
ag7
(g9
S'\x03>\x9bA'
tRp400
ag7
(g9
S'\x96\xc4vA'
tRp401
ag7
(g9
S'Ji?A'
tRp402
ag7
(g9
S'\xe6\xa5\x11A'
tRp403
ag7
(g9
S'\xf4 \xd8@'
tRp404
ag7
(g9
S'\x1c\x80\x9e@'
tRp405
ag7
(g9
S'\xa4\x81\x86@'
tRp406
ag7
(g9
S'h:\x15@'
tRp407
ag7
(g9
S'h:\x15@'
tRp408
ag7
(g9
S'\xf0\xd9\xbc?'
tRp409
ag7
(g9
S'P\xf9\x8e?'
tRp410
ag7
(g9
S'\xc0\x18S?'
tRp411
ag7
(g9
S' \xc9\x19?'
tRp412
ag7
(g9
S'\x00K\xea>'
tRp413
ag7
(g9
S'\x80\xa1\xc2>'
tRp414
ag7
(g9
S'\x00!\xa4>'
tRp415
ag7
(g9
S'\x80\xf5n>'
tRp416
ag7
(g9
S'\x00\x1a@>'
tRp417
ag7
(g9
S'\x80\xbbM>'
tRp418
ag7
(g9
S'\x80\xac\x19>'
tRp419
ag7
(g9
S'\x00\x08&>'
tRp420
ag7
(g9
S'\x00\xdc\xcf='
tRp421
ag7
(g9
S'\x00\xbd\xfa='
tRp422
ag7
(g9
S'@o\xa1>'
tRp423
ag7
(g9
S'`\x1b1?'
tRp424
ag7
(g9
S'@\xa8j?'
tRp425
ag7
(g9
S'@\x10\x87?'
tRp426
ag7
(g9
S'p\x1a\xa7?'
tRp427
ag7
(g9
S'\x90\xa1\xf9?'
tRp428
ag7
(g9
S"\x18s'@"
tRp429
ag7
(g9
S'h\xa3c@'
tRp430
ag7
(g9
S'<\x99\x9b@'
tRp431
ag7
(g9
S'\\\xba\xcd@'
tRp432
ag7
(g9
S'\x9ay\x03A'
tRp433
ag7
(g9
S'\x8aA"A'
tRp434
ag7
(g9
S'\xc2#AA'
tRp435
ag7
(g9
S'\x9e^aA'
tRp436
ag7
(g9
S'\xfd\x18\x81A'
tRp437
ag7
(g9
S's}\x91A'
tRp438
ag7
(g9
S'mo\xa1A'
tRp439
ag7
(g9
S'ID\xb1A'
tRp440
ag7
(g9
S'_\xd0\xc0A'
tRp441
ag7
(g9
S'\x8fa\xd0A'
tRp442
ag7
(g9
S'\xc7t\xdfA'
tRp443
ag7
(g9
S'#R\xeeA'
tRp444
ag7
(g9
S'I=\xfcA'
tRp445
ag7
(g9
S' \xd9\x03B'
tRp446
ag7
(g9
S'\xf6\x82\x08B'
tRp447
ag7
(g9
S'\xc0e\x0cB'
tRp448
ag7
(g9
S',9\x10B'
tRp449
ag7
(g9
S'\x12U\x14B'
tRp450
ag7
(g9
S':\xa0\x18B'
tRp451
ag7
(g9
S'\x10\xdb\x1cB'
tRp452
ag7
(g9
S'\x94\xb2 B'
tRp453
ag7
(g9
S'X\xd9$B'
tRp454
ag7
(g9
S'\xb4\x80,B'
tRp455
ag7
(g9
S'\xd2\xb91B'
tRp456
ag7
(g9
S'B\x0c6B'
tRp457
ag7
(g9
S'\x90\xc29B'
tRp458
ag7
(g9
S'~$<B'
tRp459
ag7
(g9
S'\xf6\x98<B'
tRp460
ag7
(g9
S'\xd2\xc7:B'
tRp461
ag7
(g9
S'\xaa*7B'
tRp462
ag7
(g9
S'j\r1B'
tRp463
ag7
(g9
S'8\xe6(B'
tRp464
ag7
(g9
S'`J B'
tRp465
ag7
(g9
S'L\x9e\x16B'
tRp466
ag7
(g9
S'\xc2\x0f\x0cB'
tRp467
ag7
(g9
S'\x18\xf1\x00B'
tRp468
ag7
(g9
S'\x85\xc7\xeaA'
tRp469
ag7
(g9
S'[n\xd1A'
tRp470
ag7
(g9
S'51\xb5A'
tRp471
ag7
(g9
S'\xcf=\x98A'
tRp472
ag7
(g9
S'"\x97vA'
tRp473
ag7
(g9
S"\xe2\xc0'A"
tRp474
ag7
(g9
S'\xccB\xfc@'
tRp475
ag7
(g9
S'L\x07\xbb@'
tRp476
ag7
(g9
S'<\x98\x8a@'
tRp477
ag7
(g9
S'\xb8WN@'
tRp478
ag7
(g9
S'\xb8M\x18@'
tRp479
ag7
(g9
S'\xb0&\xe2?'
tRp480
ag7
(g9
S'\x90\\\xa1?'
tRp481
ag7
(g9
S'\x80={?'
tRp482
ag7
(g9
S'\x00\xa9E?'
tRp483
ag7
(g9
S'`\xd4\x0f?'
tRp484
ag7
(g9
S'\xc0-\xe2>'
tRp485
ag7
(g9
S'\x807\xb2>'
tRp486
ag7
(g9
S'@a\x95>'
tRp487
ag7
(g9
S'\x00\x92\x84>'
tRp488
ag7
(g9
S'\x80\x10Z>'
tRp489
ag7
(g9
S'\x00t#>'
tRp490
ag7
(g9
S'\x00g&>'
tRp491
ag7
(g9
S'\x00DD>'
tRp492
ag7
(g9
S'\x80E\x9d>'
tRp493
ag7
(g9
S' a5?'
tRp494
ag7
(g9
S'pl\x91?'
tRp495
ag7
(g9
S'P@\xa3?'
tRp496
ag7
(g9
S'p\xf4\xb4?'
tRp497
ag7
(g9
S'\x902\xe2?'
tRp498
ag7
(g9
S'\x889\x11@'
tRp499
ag7
(g9
S'\xa8\x1d9@'
tRp500
ag7
(g9
S'\xc8.o@'
tRp501
ag7
(g9
S'\x1cL\x9a@'
tRp502
ag7
(g9
S'\xfc\xb8\xc9@'
tRp503
ag7
(g9
S'~\x02\x02A'
tRp504
ag7
(g9
S'*\xdf!A'
tRp505
ag7
(g9
S':|AA'
tRp506
ag7
(g9
S'\xda\x14`A'
tRp507
ag7
(g9
S'\x06\x0e}A'
tRp508
ag7
(g9
S'\xc5\xb9\x92A'
tRp509
ag7
(g9
S'iR\x98A'
tRp510
ag7
(g9
S'\x01\x0f\xa3A'
tRp511
ag7
(g9
S'\x85\xa1\xb2A'
tRp512
ag7
(g9
S'C?\xb8A'
tRp513
ag7
(g9
S'\x9d\xac\xc4A'
tRp514
ag7
(g9
S'\xfb\x88\xd2A'
tRp515
ag7
(g9
S'\x8f\x9f\xe1A'
tRp516
ag7
(g9
S'\xbfC\xf7A'
tRp517
ag7
(g9
S'\x90\xd9\x02B'
tRp518
ag7
(g9
S'T\xca\tB'
tRp519
ag7
(g9
S'\xf0K\x10B'
tRp520
ag7
(g9
S'\x90\x98\x16B'
tRp521
ag7
(g9
S'\xba\xdf\x1cB'
tRp522
ag7
(g9
S'J\xb1#B'
tRp523
ag7
(g9
S'\x9c\xc4*B'
tRp524
ag7
(g9
S'\xda\x182B'
tRp525
ag7
(g9
S'\xb0-9B'
tRp526
ag7
(g9
S'\xd4\x8b@B'
tRp527
ag7
(g9
S'p\xf7GB'
tRp528
ag7
(g9
S'\xf6\x12NB'
tRp529
ag7
(g9
S'(\xb7QB'
tRp530
ag7
(g9
S'p\xe5RB'
tRp531
ag7
(g9
S'\x04)QB'
tRp532
ag7
(g9
S'\x04\x01LB'
tRp533
ag7
(g9
S'\x0c<DB'
tRp534
ag7
(g9
S'(\xb0:B'
tRp535
ag7
(g9
S'L-0B'
tRp536
ag7
(g9
S'nk$B'
tRp537
ag7
(g9
S'z\x94\x17B'
tRp538
ag7
(g9
S'\x0e\xae\tB'
tRp539
ag7
(g9
S'o\x82\xe4A'
tRp540
ag7
(g9
S'\t\xdc\xc3A'
tRp541
ag7
(g9
S'\xe5s\xa3A'
tRp542
ag7
(g9
S'\x97c\x86A'
tRp543
ag7
(g9
S'\x8aIWA'
tRp544
ag7
(g9
S"j\xe8'A"
tRp545
ag7
(g9
S'\xec|\xfe@'
tRp546
ag7
(g9
S',\xcf\xbd@'
tRp547
ag7
(g9
S'\x0c\x06\x8c@'
tRp548
ag7
(g9
S'h\xbeL@'
tRp549
ag7
(g9
S'\x08B\x17@'
tRp550
ag7
(g9
S'\xb0<\xe0?'
tRp551
ag7
(g9
S'\xf0\xe1\xae?'
tRp552
ag7
(g9
S'\xe0\xe4a?'
tRp553
ag7
(g9
S' \xbc3?'
tRp554
ag7
(g9
S'\x00\xb6\x10?'
tRp555
ag7
(g9
S'\x00\x07\xf1>'
tRp556
ag7
(g9
S'\xc0\xbc\xba>'
tRp557
ag7
(g9
S'\xc05\xba>'
tRp558
ag7
(g9
S'\xc0]\x88>'
tRp559
ag7
(g9
S'\x007x>'
tRp560
ag7
(g9
S'\x80dO>'
tRp561
ag7
(g9
S'\x00\x981>'
tRp562
ag7
(g9
S'\x80a5>'
tRp563
ag7
(g9
S'\x80\x0c\x89>'
tRp564
ag7
(g9
S'\xa0k5?'
tRp565
ag7
(g9
S' \xbb}?'
tRp566
ag7
(g9
S'\xd0"\x85?'
tRp567
ag7
(g9
S"\xb0'\x9c?"
tRp568
ag7
(g9
S'P6\xc1?'
tRp569
ag7
(g9
S'ht\x02@'
tRp570
ag7
(g9
S'Xa-@'
tRp571
ag7
(g9
S'H\xbei@'
tRp572
ag7
(g9
S'\xdc\xf6\x97@'
tRp573
ag7
(g9
S'\xe4-\xbc@'
tRp574
ag7
(g9
S'\x0c\xd8\xe0@'
tRp575
ag7
(g9
S'\x1e)\x04A'
tRp576
ag7
(g9
S'\xc2B\x18A'
tRp577
ag7
(g9
S'\x1e\xc5*A'
tRp578
ag7
(g9
S'\x02\x12;A'
tRp579
ag7
(g9
S'~\x1eTA'
tRp580
ag7
(g9
S'\xd2\xaffA'
tRp581
ag7
(g9
S'\x06Q|A'
tRp582
ag7
(g9
S'g\x16\x8aA'
tRp583
ag7
(g9
S'\xbf\x1f\x90A'
tRp584
ag7
(g9
S'I!\x9dA'
tRp585
ag7
(g9
S'!\xb2\xaaA'
tRp586
ag7
(g9
S'I\xe4\xbeA'
tRp587
ag7
(g9
S'\x85\x8f\xcbA'
tRp588
ag7
(g9
S'/\xb8\xd6A'
tRp589
ag7
(g9
S'\x114\xe0A'
tRp590
ag7
(g9
S'\xcf\xd9\xe8A'
tRp591
ag7
(g9
S'\xdd]\xf2A'
tRp592
ag7
(g9
S'wh\xfbA'
tRp593
ag7
(g9
S':\x7f\x02B'
tRp594
ag7
(g9
S'Z\xb4\x07B'
tRp595
ag7
(g9
S'`\x12\rB'
tRp596
ag7
(g9
S'V\xdc\x0fB'
tRp597
ag7
(g9
S'\x16\xa4\x15B'
tRp598
ag7
(g9
S':\xfa!B'
tRp599
ag7
(g9
S'>h%B'
tRp600
ag7
(g9
S'\xec\xe6/B'
tRp601
ag7
(g9
S'\xa6[3B'
tRp602
ag7
(g9
S'&\\>B'
tRp603
ag7
(g9
S'\xb6.FB'
tRp604
ag7
(g9
S'*\x81JB'
tRp605
ag7
(g9
S'\xd6"RB'
tRp606
ag7
(g9
S'\xa2<XB'
tRp607
ag7
(g9
S'\xdeM^B'
tRp608
ag7
(g9
S'\xae\x12_B'
tRp609
ag7
(g9
S'\xae\x90^B'
tRp610
ag7
(g9
S'\xc2\x07YB'
tRp611
ag7
(g9
S'>\xc8RB'
tRp612
ag7
(g9
S'\x82\x1fJB'
tRp613
ag7
(g9
S'\x8a\xc5?B'
tRp614
ag7
(g9
S'h\x814B'
tRp615
ag7
(g9
S'\xc6s(B'
tRp616
ag7
(g9
S' \x13\x1aB'
tRp617
ag7
(g9
S'\xb8\x1a\x01B'
tRp618
ag7
(g9
S'\xc9\x01\xe0A'
tRp619
ag7
(g9
S'\x15\xc6\xbeA'
tRp620
ag7
(g9
S'k\x11\x9fA'
tRp621
ag7
(g9
S'cA\x81A'
tRp622
ag7
(g9
S'\x96vgA'
tRp623
ag7
(g9
S'\x1a95A'
tRp624
ag7
(g9
S'\x9e\x8b\tA'
tRp625
ag7
(g9
S'\xa4\xcf\xb3@'
tRp626
ag7
(g9
S'\xc4,\x85@'
tRp627
ag7
(g9
S'\xa8[F@'
tRp628
ag7
(g9
S'\xc8\xfe\x15@'
tRp629
ag7
(g9
S'0\x95\xe6?'
tRp630
ag7
(g9
S'P<\xb5?'
tRp631
ag7
(g9
S'@(\x90?'
tRp632
ag7
(g9
S'\xc0;^?'
tRp633
ag7
(g9
S'@]4?'
tRp634
ag7
(g9
S'\xc0j\x1a?'
tRp635
ag7
(g9
S'\x80\xe0\x06?'
tRp636
ag7
(g9
S'\x00\xf5\xf3>'
tRp637
ag7
(g9
S'\xc0\xf7\xbb>'
tRp638
ag7
(g9
S'\x00Q\xad>'
tRp639
ag7
(g9
S'@\x8f\x94>'
tRp640
ag7
(g9
S'@A\x90>'
tRp641
ag7
(g9
S'@\xd7\x8a>'
tRp642
ag7
(g9
S'\x80\xe2l>'
tRp643
ag7
(g9
S'\x00>O>'
tRp644
ag7
(g9
S'\x80\x04l>'
tRp645
ag7
(g9
S'\x00\xeb:>'
tRp646
ag7
(g9
S'\x8096>'
tRp647
ag7
(g9
S'\x80\xa1G>'
tRp648
ag7
(g9
S'\x00\x16Z>'
tRp649
ag7
(g9
S'@\xe9\x14?'
tRp650
ag7
(g9
S'\xa0\x03M?'
tRp651
ag7
(g9
S'ps\x9f?'
tRp652
ag7
(g9
S'\x10\xc4\xdc?'
tRp653
ag7
(g9
S'H\x96\x14@'
tRp654
ag7
(g9
S'H\x9dJ@'
tRp655
ag7
(g9
S'|q\x87@'
tRp656
ag7
(g9
S',T\xb4@'
tRp657
ag7
(g9
S'\x02 \x03A'
tRp658
ag7
(g9
S'~\xf4\x1cA'
tRp659
ag7
(g9
S'\xc6\xc3*A'
tRp660
ag7
(g9
S'\x06/UA'
tRp661
ag7
(g9
S'*\x03sA'
tRp662
ag7
(g9
S'?\xe8\x87A'
tRp663
ag7
(g9
S'\xc5=\x95A'
tRp664
ag7
(g9
S'\xc7_\xa2A'
tRp665
ag7
(g9
S'}o\xafA'
tRp666
ag7
(g9
S'9\xda\xbcA'
tRp667
ag7
(g9
S'\xa3\xc0\xcaA'
tRp668
ag7
(g9
S"'n\xd8A"
tRp669
ag7
(g9
S'\xd5\x95\xe6A'
tRp670
ag7
(g9
S'5\x1e\xf4A'
tRp671
ag7
(g9
S'\xba\xa8\x00B'
tRp672
ag7
(g9
S'\x88\n\x07B'
tRp673
ag7
(g9
S'\xba\xda\x0cB'
tRp674
ag7
(g9
S'\xb4\x06\x12B'
tRp675
ag7
(g9
S'\xf8\xd2\x16B'
tRp676
ag7
(g9
S'\xdc.\x1bB'
tRp677
ag7
(g9
S'\x0c#\x1dB'
tRp678
ag7
(g9
S'\xee8!B'
tRp679
ag7
(g9
S'\xfc=&B'
tRp680
ag7
(g9
S'f7)B'
tRp681
ag7
(g9
S'N_,B'
tRp682
ag7
(g9
S'\xba\x1b-B'
tRp683
ag7
(g9
S'p\x1c-B'
tRp684
ag7
(g9
S'\xd0{+B'
tRp685
ag7
(g9
S'\xfa\xd5(B'
tRp686
ag7
(g9
S',@%B'
tRp687
ag7
(g9
S'6\xfd\x1fB'
tRp688
ag7
(g9
S'"A\x1aB'
tRp689
ag7
(g9
S'\xfcp\x14B'
tRp690
ag7
(g9
S'P\xb5\x0eB'
tRp691
ag7
(g9
S'\xc63\tB'
tRp692
ag7
(g9
S'\xa1\xf2\xfbA'
tRp693
ag7
(g9
S'\xeb\x9c\xe7A'
tRp694
ag7
(g9
S'kf\xd1A'
tRp695
ag7
(g9
S'AB\xbaA'
tRp696
ag7
(g9
S'\xed\x85\xa2A'
tRp697
ag7
(g9
S'\xab\x19\x8bA'
tRp698
ag7
(g9
S'\xc2\xb4WA'
tRp699
ag7
(g9
S'\xb6{DA'
tRp700
ag7
(g9
S'\xae\x03\x16A'
tRp701
ag7
(g9
S'\x96\xc5\tA'
tRp702
ag7
(g9
S'\xc4\xeb\xe3@'
tRp703
ag7
(g9
S'\xbc\x90\xd0@'
tRp704
ag7
(g9
S'd\xdd\x9a@'
tRp705
ag7
(g9
S'\xc8\x8b^@'
tRp706
ag7
(g9
S'X\xfa-@'
tRp707
ag7
(g9
S'\x88\x83\n@'
tRp708
ag7
(g9
S'\xf0<\xe0?'
tRp709
ag7
(g9
S'\xf0t\xc6?'
tRp710
ag7
(g9
S'p\xe1\xa7?'
tRp711
ag7
(g9
S'p\xee\x90?'
tRp712
ag7
(g9
S'P\xa9\x80?'
tRp713
ag7
(g9
S' Z]?'
tRp714
ag7
(g9
S'\x00#A?'
tRp715
ag7
(g9
S'\x80g(?'
tRp716
ag7
(g9
S'\xc0\xc9\x1e?'
tRp717
ag7
(g9
S'\xe0/#?'
tRp718
ag7
(g9
S'\x80\xf1\x13?'
tRp719
ag7
(g9
S' \x06\x0b?'
tRp720
ag7
(g9
S'\xc0\x8f\x02?'
tRp721
ag7
(g9
S'\xc0\xde\xec>'
tRp722
ag7
(g9
S'\x00O\xf0>'
tRp723
ag7
(g9
S'\xe0\xcd\x01?'
tRp724
ag7
(g9
S'@\xca\x07?'
tRp725
ag7
(g9
S'0\xea\x88?'
tRp726
ag7
(g9
S'P\xac\xd2?'
tRp727
ag7
(g9
S'\x98W\x12@'
tRp728
ag7
(g9
S'\xf8\x85\x1f@'
tRp729
ag7
(g9
S'H\x1ay@'
tRp730
ag7
(g9
S'4\xcc\x8f@'
tRp731
ag7
(g9
S'\x8cH\xb6@'
tRp732
ag7
(g9
S'\xe4I\xff@'
tRp733
ag7
(g9
S'\x8e\xa2\x0cA'
tRp734
ag7
(g9
S'\xfap*A'
tRp735
ag7
(g9
S'z$YA'
tRp736
ag7
(g9
S'\x8e\x81iA'
tRp737
ag7
(g9
S'g\xc8\x8cA'
tRp738
ag7
(g9
S'\xe5R\xa6A'
tRp739
ag7
(g9
S'\x1d6\xafA'
tRp740
ag7
(g9
S'=\x83\xc7A'
tRp741
ag7
(g9
S'=\x83\xc7A'
tRp742
ag7
(g9
S'-\xfc\xd9A'
tRp743
ag7
(g9
S'\xbf>\xdfA'
tRp744
ag7
(g9
S'\xa5"\xf0A'
tRp745
ag7
(g9
S'\xe7<\xf6A'
tRp746
ag7
(g9
S"\xfe'\x06B"
tRp747
ag7
(g9
S'\xb2S\x0bB'
tRp748
ag7
(g9
S'|\xf2\x0fB'
tRp749
ag7
(g9
S'\x94\xfb\x14B'
tRp750
ag7
(g9
S'\x94\x81\x1aB'
tRp751
ag7
(g9
S'\xe6\xdf\x1fB'
tRp752
ag7
(g9
S'\xae;$B'
tRp753
ag7
(g9
S"\xc4\x9f'B"
tRp754
ag7
(g9
S'\x00\x16*B'
tRp755
ag7
(g9
S'B$,B'
tRp756
ag7
(g9
S'\xb0\xd0-B'
tRp757
ag7
(g9
S'\x94\x88.B'
tRp758
ag7
(g9
S'\xfa\xff.B'
tRp759
ag7
(g9
S'6\x16.B'
tRp760
ag7
(g9
S'\xe8\xc7-B'
tRp761
ag7
(g9
S'Vw,B'
tRp762
ag7
(g9
S'\xf2\x82)B'
tRp763
ag7
(g9
S'XU#B'
tRp764
ag7
(g9
S'\xfau\x1dB'
tRp765
ag7
(g9
S'\xf2|\x16B'
tRp766
ag7
(g9
S'\x10\xf0\x0cB'
tRp767
ag7
(g9
S'\x10g\x00B'
tRp768
ag7
(g9
S'\x83\x14\xe2A'
tRp769
ag7
(g9
S'\x01v\xbfA'
tRp770
ag7
(g9
S'\r\x9f\x9aA'
tRp771
ag7
(g9
S'\x16\xd0qA'
tRp772
ag7
(g9
S'\xbe\xe08A'
tRp773
ag7
(g9
S'\xb2s\x0bA'
tRp774
ag7
(g9
S'\xdc\xe9\xce@'
tRp775
ag7
(g9
S'\x8c\xf8\x98@'
tRp776
ag7
(g9
S'\xe8\xb5c@'
tRp777
ag7
(g9
S'\xf8h*@'
tRp778
ag7
(g9
S'h0\x02@'
tRp779
ag7
(g9
S'\xf0\xd5\xc7?'
tRp780
ag7
(g9
S'\xb0\xac\x97?'
tRp781
ag7
(g9
S'\x80bc?'
tRp782
ag7
(g9
S'\xe0\x9d0?'
tRp783
ag7
(g9
S'\xc0x\x02?'
tRp784
ag7
(g9
S'\x80-\xdc>'
tRp785
ag7
(g9
S'\x00\x0b\xc3>'
tRp786
ag7
(g9
S'\x00\x0b\xc3>'
tRp787
ag7
(g9
S'\x80\xca\x8a>'
tRp788
ag7
(g9
S'\xc0\xd6\x8a>'
tRp789
ag7
(g9
S'\xc0\xa6\x88>'
tRp790
ag7
(g9
S'\x00B7>'
tRp791
ag7
(g9
S'\x00_->'
tRp792
ag7
(g9
S'\x00\xbaU>'
tRp793
ag7
(g9
S'\x00R$>'
tRp794
ag7
(g9
S'\x00}0>'
tRp795
ag7
(g9
S'\x00\xf5\x1e>'
tRp796
ag7
(g9
S'\x800/>'
tRp797
ag7
(g9
S'\x00\xb6->'
tRp798
ag7
(g9
S'\x00\xe2*>'
tRp799
ag7
(g9
S'\x00\xf1\xdd='
tRp800
ag7
(g9
S'@U\xa9>'
tRp801
ag7
(g9
S'@\x1a\xf8>'
tRp802
ag7
(g9
S'`KP?'
tRp803
ag7
(g9
S'0c\xa2?'
tRp804
ag7
(g9
S'\xf0w\xc1?'
tRp805
ag7
(g9
S'X\x8a\r@'
tRp806
ag7
(g9
S'\xd8\x06v@'
tRp807
ag7
(g9
S'\xc4 \xae@'
tRp808
ag7
(g9
S'\x9cj\xef@'
tRp809
ag7
(g9
S'\xbaw\x1aA'
tRp810
ag7
(g9
S'\xaa\x04<A'
tRp811
ag7
(g9
S'\xb64\\A'
tRp812
ag7
(g9
S'\x8e\x18mA'
tRp813
ag7
(g9
S'\xb1\xc0\x8fA'
tRp814
ag7
(g9
S'+\xa9\xa1A'
tRp815
ag7
(g9
S'[J\xb5A'
tRp816
ag7
(g9
S'\x957\xc8A'
tRp817
ag7
(g9
S'\x8f\xf0\xd8A'
tRp818
ag7
(g9
S'\x03\x08\xe8A'
tRp819
ag7
(g9
S'\xd5\x88\xf6A'
tRp820
ag7
(g9
S'Z=\x02B'
tRp821
ag7
(g9
S'd\x06\tB'
tRp822
ag7
(g9
S'\xe2\x81\x0fB'
tRp823
ag7
(g9
S':\xee\x15B'
tRp824
ag7
(g9
S'\xe2\x8c\x1cB'
tRp825
ag7
(g9
S'`%#B'
tRp826
ag7
(g9
S'\xa6(*B'
tRp827
ag7
(g9
S'\x06}0B'
tRp828
ag7
(g9
S'6\xbe5B'
tRp829
ag7
(g9
S'\xb6\x8e:B'
tRp830
ag7
(g9
S'\x1a\x16?B'
tRp831
ag7
(g9
S'X\xb6FB'
tRp832
ag7
(g9
S'\xbc\xa7KB'
tRp833
ag7
(g9
S'z\xc2OB'
tRp834
ag7
(g9
S'\xb2\xdfQB'
tRp835
ag7
(g9
S':\x98QB'
tRp836
ag7
(g9
S'h\xb1PB'
tRp837
ag7
(g9
S'\x0c\x0fNB'
tRp838
ag7
(g9
S'n\x14LB'
tRp839
ag7
(g9
S'(\xc1FB'
tRp840
ag7
(g9
S'\x90\x81<B'
tRp841
ag7
(g9
S'\xd0\xd72B'
tRp842
ag7
(g9
S'\xe4P B'
tRp843
ag7
(g9
S'\xa6\xd0\x13B'
tRp844
ag7
(g9
S'\x94\xac\rB'
tRp845
ag7
(g9
S'\x85\xbf\xffA'
tRp846
ag7
(g9
S'a\xda\xd1A'
tRp847
ag7
(g9
S'U\x0c\xb4A'
tRp848
ag7
(g9
S'\x93\xe5\x97A'
tRp849
ag7
(g9
S'\xb9\xfa\x8aA'
tRp850
ag7
(g9
S'\x12\xa0KA'
tRp851
ag7
(g9
S'\x02s A'
tRp852
ag7
(g9
S'\xf4\xcc\xf6@'
tRp853
ag7
(g9
S'|\x07\xb7@'
tRp854
ag7
(g9
S'd\xdf\x86@'
tRp855
ag7
(g9
S'\x18\x17k@'
tRp856
ag7
(g9
S'h\x0c\x16@'
tRp857
ag7
(g9
S'\xf0\x80\xe4?'
tRp858
ag7
(g9
S'P\xad\xac?'
tRp859
ag7
(g9
S'\xd0s\x81?'
tRp860
ag7
(g9
S'@YK?'
tRp861
ag7
(g9
S"\x80\x05'?"
tRp862
ag7
(g9
S'\x80\xa2\n?'
tRp863
ag7
(g9
S'\x00\xf1\xe6>'
tRp864
ag7
(g9
S'\x00\xc4\xb2>'
tRp865
ag7
(g9
S'\x80\x7f\x9a>'
tRp866
ag7
(g9
S'\x00-\x8e>'
tRp867
ag7
(g9
S'\xc0\xf7\x90>'
tRp868
ag7
(g9
S'\x80\x86e>'
tRp869
ag7
(g9
S'\x80\xb5s>'
tRp870
ag7
(g9
S'\x80\xadr>'
tRp871
ag7
(g9
S'\x00\xe3E>'
tRp872
ag7
(g9
S'\x00J)>'
tRp873
ag7
(g9
S'\x80\xd6#>'
tRp874
ag7
(g9
S'\x00\x0e3>'
tRp875
ag7
(g9
S'\x00\xa0\x11>'
tRp876
ag7
(g9
S'\x00\xf1.>'
tRp877
ag7
(g9
S'\x00A2?'
tRp878
ag7
(g9
S'\xb0\xf4\x94?'
tRp879
ag7
(g9
S'Pd\xbb?'
tRp880
ag7
(g9
S'p\x8c\xe6?'
tRp881
ag7
(g9
S'\x98\xcf @'
tRp882
ag7
(g9
S'\x04H\x84@'
tRp883
ag7
(g9
S'<\x12\xb3@'
tRp884
ag7
(g9
S'$\x9f\xcc@'
tRp885
ag7
(g9
S'\xa2\xfa\x16A'
tRp886
ag7
(g9
S'\xa2\xfa\x16A'
tRp887
ag7
(g9
S'\x9e\xd5QA'
tRp888
ag7
(g9
S'\x164}A'
tRp889
ag7
(g9
S"\x17'\xa0A"
tRp890
ag7
(g9
S'\xaf`\xb6A'
tRp891
ag7
(g9
S'U@\xccA'
tRp892
ag7
(g9
S'\x1b}\xe0A'
tRp893
ag7
(g9
S'O\xe3\xe9A'
tRp894
ag7
(g9
S'b:\x03B'
tRp895
ag7
(g9
S'\xd0\xae\x0bB'
tRp896
ag7
(g9
S'\x12\x0b\x14B'
tRp897
ag7
(g9
S'b\x0e\x1cB'
tRp898
ag7
(g9
S'\xc65$B'
tRp899
ag7
(g9
S'\x84\xa5+B'
tRp900
ag7
(g9
S'J<5B'
tRp901
ag7
(g9
S'zE8B'
tRp902
ag7
(g9
S'\x00\xcf@B'
tRp903
ag7
(g9
S'\xac\x8eEB'
tRp904
ag7
(g9
S'\x14\xecGB'
tRp905
ag7
(g9
S'0\xe5LB'
tRp906
ag7
(g9
S'\xf8\x02OB'
tRp907
ag7
(g9
S'p\xe5PB'
tRp908
ag7
(g9
S'TJRB'
tRp909
ag7
(g9
S'Z\xfdRB'
tRp910
ag7
(g9
S'B7RB'
tRp911
ag7
(g9
S'\xe4\xf9KB'
tRp912
ag7
(g9
S'\xa2[DB'
tRp913
ag7
(g9
S'l\xb8:B'
tRp914
ag7
(g9
S'2\x0e/B'
tRp915
ag7
(g9
S'\x86\x19!B'
tRp916
ag7
(g9
S'\xce\xb5\x12B'
tRp917
ag7
(g9
S'\x82V\x04B'
tRp918
ag7
(g9
S'\xf9\x08\xebA'
tRp919
ag7
(g9
S'\xd5\xe0\xccA'
tRp920
ag7
(g9
S'\x8dK\xafA'
tRp921
ag7
(g9
S'9\xb6\x85A'
tRp922
ag7
(g9
S'F\xdcrA'
tRp923
ag7
(g9
S'\xbe</A'
tRp924
ag7
(g9
S'*>\x1bA'
tRp925
ag7
(g9
S'D\x9c\xf1@'
tRp926
ag7
(g9
S'\xd45\x9f@'
tRp927
ag7
(g9
S'X\xdbk@'
tRp928
ag7
(g9
S'\xf8\x1a.@'
tRp929
ag7
(g9
S'H\x9d\x02@'
tRp930
ag7
(g9
S'0\x86\xc6?'
tRp931
ag7
(g9
S'@7\x91?'
tRp932
ag7
(g9
S'@_^?'
tRp933
ag7
(g9
S'\xa0\xfcM?'
tRp934
ag7
(g9
S' w\x06?'
tRp935
ag7
(g9
S'@W\xe4>'
tRp936
ag7
(g9
S'@\xc3\xb7>'
tRp937
ag7
(g9
S'\x80:\x85>'
tRp938
ag7
(g9
S'\x00vm>'
tRp939
ag7
(g9
S'\x00\xb1_>'
tRp940
ag7
(g9
S'\x0076>'
tRp941
ag7
(g9
S'\x00\x0e5>'
tRp942
ag7
(g9
S'\x00\x81I>'
tRp943
ag7
(g9
S'\x80AK>'
tRp944
ag7
(g9
S'\x00\xaf\x0e>'
tRp945
ag7
(g9
S'\x00\x95\xfb='
tRp946
ag7
(g9
S'\x00\x99%>'
tRp947
ag7
(g9
S'\x00]\xfb='
tRp948
ag7
(g9
S'\x00\xd9\xb8='
tRp949
ag7
(g9
S'\x00\x07\xd9='
tRp950
ag7
(g9
S'\x00\xbc\x88='
tRp951
ag7
(g9
S'\x00\t\xa8='
tRp952
ag7
(g9
S'@\xe8\x9f>'
tRp953
ag7
(g9
S'\xc0pa?'
tRp954
ag7
(g9
S'\x107\xa3?'
tRp955
ag7
(g9
S'pC\xaf?'
tRp956
ag7
(g9
S'p9\xd4?'
tRp957
ag7
(g9
S'\xf0n\xfe?'
tRp958
ag7
(g9
S'\x888S@'
tRp959
ag7
(g9
S'\xccb\x94@'
tRp960
ag7
(g9
S'l\xe6\xd2@'
tRp961
ag7
(g9
S'\xcaw\x15A'
tRp962
ag7
(g9
S'\xee\xc0EA'
tRp963
ag7
(g9
S'\x92\xbewA'
tRp964
ag7
(g9
S'\x8b\x98\xa2A'
tRp965
ag7
(g9
S'}\xdb\xafA'
tRp966
ag7
(g9
S'\xd3;\xc8A'
tRp967
ag7
(g9
S'\xeb\x02\xdeA'
tRp968
ag7
(g9
S'\xf3\xae\xf1A'
tRp969
ag7
(g9
S'\xc4\x91\x01B'
tRp970
ag7
(g9
S'hH\rB'
tRp971
ag7
(g9
S'xE\x14B'
tRp972
ag7
(g9
S'6\x8d\x17B'
tRp973
ag7
(g9
S'\xeaL\x1eB'
tRp974
ag7
(g9
S'\xe0\x10(B'
tRp975
ag7
(g9
S'p\xe1.B'
tRp976
ag7
(g9
S'\xf6w5B'
tRp977
ag7
(g9
S'\x98\x1f8B'
tRp978
ag7
(g9
S'\x16\xe8?B'
tRp979
ag7
(g9
S'l?FB'
tRp980
ag7
(g9
S'\xd4\xa7NB'
tRp981
ag7
(g9
S'\\\x07RB'
tRp982
ag7
(g9
S'F*SB'
tRp983
ag7
(g9
S'\xec\x89SB'
tRp984
ag7
(g9
S'\xac\xbfQB'
tRp985
ag7
(g9
S'4qLB'
tRp986
ag7
(g9
S'\xda\xaf=B'
tRp987
ag7
(g9
S'\xe6\x8a0B'
tRp988
ag7
(g9
S'\xe4>"B'
tRp989
ag7
(g9
S'2\xcc\x13B'
tRp990
ag7
(g9
S'\xb8\x81\x04B'
tRp991
ag7
(g9
S'g\xa0\xe9A'
tRp992
ag7
(g9
S'\xf7\xb9\xcaA'
tRp993
ag7
(g9
S'\xad\x04\xacA'
tRp994
ag7
(g9
S'\x17\xe2\x8eA'
tRp995
ag7
(g9
S'f\xa2hA'
tRp996
asS'adc'
p997
(lp998
F1023
aF1023
aF1023
aF1023
aF1023
aF1023
aF1023
aF1023
aF1023
aF1023
aF1023
aF1023
aF1023
aF1023
aF1023
aF1023
aF1023
aF1023
aF1023
aF1023
aF1023
aF1023
aF1023
aF1023
aF1023
aF1023
aF1023
aF1023
aF1023
aF1023
aF1023
aF1023
aF1023
aF1023
aF1023
aF1023
aF1023
aF1023
aF1023
aF1023
aF1023
aF1023
aF1023
aF1023
aF1023
aF1023
aF1023
aF1023
aF1023
aF1023
aF1023
aF1023
aF1023
aF1023
aF1023
aF1023
aF1023
aF1023
aF1023
aF1023
aF1023
aF1023
aF1023
aF1023
aF1023
aF1023
aF1023
aF1023
aF1023
aF1023
aF1023
aF1017
aF987
aF951
aF931
aF799
aF740
aF647
aF582
aF523
aF480
aF417
aF356
aF332
aF302
aF304
aF256
aF243
aF231
aF217
aF204
aF196
aF184
aF178
aF173
aF169
aF162
aF160
aF158
aF157
aF155
aF157
aF156
aF160
aF165
aF173
aF182
aF189
aF201
aF215
aF225
aF249
aF286
aF325
aF357
aF393
aF419
aF464
aF485
aF506
aF526
aF531
aF526
aF518
aF539
aF561
aF577
aF584
aF590
aF589
aF590
aF594
aF617
aF620
aF602
aF597
aF592
aF579
aF549
aF545
aF529
aF515
aF494
aF418
aF373
aF335
aF300
aF273
aF238
aF228
aF212
aF201
aF195
aF182
aF176
aF173
aF170
aF167
aF163
aF161
aF159
aF157
aF154
aF151
aF150
aF148
aF147
aF147
aF147
aF147
aF148
aF149
aF155
aF159
aF174
aF188
aF208
aF225
aF252
aF275
aF291
aF337
aF373
aF402
aF423
aF446
aF464
aF476
aF482
aF484
aF487
aF487
aF486
aF488
aF502
aF492
aF485
aF478
aF467
aF460
aF454
aF449
aF443
aF429
aF416
aF407
aF399
aF340
aF320
aF291
aF267
aF247
aF230
aF215
aF208
aF192
aF183
aF173
aF171
aF164
aF162
aF157
aF153
aF151
aF149
aF145
aF143
aF141
aF140
aF138
aF138
aF137
aF137
aF138
aF138
aF138
aF138
aF140
aF141
aF146
aF154
aF173
aF197
aF223
aF275
aF318
aF357
aF378
aF389
aF423
aF465
aF486
aF499
aF500
aF504
aF507
aF500
aF501
aF507
aF521
aF508
aF497
aF491
aF481
aF478
aF478
aF474
aF472
aF451
aF440
aF417
aF401
aF386
aF357
aF340
aF306
aF273
aF247
aF223
aF214
aF202
aF194
aF185
aF172
aF165
aF158
aF154
aF152
aF151
aF153
aF144
aF141
aF139
aF138
aF138
aF137
aF136
aF136
aF134
aF132
aF132
aF132
aF133
aF134
aF136
aF138
aF138
aF156
aF176
aF201
aF234
aF282
aF340
aF481
aF578
aF701
aF752
aF770
aF766
aF766
aF786
aF787
aF802
aF792
aF804
aF796
aF805
aF793
aF790
aF808
aF804
aF816
aF809
aF797
aF792
aF795
aF805
aF798
aF792
aF766
aF725
aF644
aF487
aF393
aF320
aF269
aF242
aF224
aF209
aF197
aF189
aF181
aF174
aF169
aF164
aF161
aF159
aF155
aF152
aF147
aF144
aF141
aF139
aF136
aF133
aF130
aF128
aF126
aF126
aF124
aF123
aF123
aF122
aF121
aF121
aF120
aF120
aF120
aF120
aF120
aF122
aF127
aF128
aF129
aF133
aF140
aF154
aF172
aF211
aF264
aF373
aF522
aF663
aF891
aF893
aF894
aF895
aF897
aF900
aF899
aF893
aF894
aF904
aF899
aF907
aF903
aF901
aF901
aF902
aF901
aF902
aF895
aF749
aF730
aF731
aF718
aF698
aF590
aF539
aF478
aF381
aF325
aF283
aF250
aF231
aF214
aF198
aF191
aF182
aF175
aF167
aF162
aF159
aF155
aF152
aF149
aF148
aF147
aF145
aF144
aF142
aF141
aF140
aF138
aF136
aF134
aF134
aF133
aF132
aF132
aF133
aF135
aF135
aF134
aF136
aF140
aF143
aF148
aF159
aF173
aF208
aF260
aF379
aF585
aF744
aF837
aF836
aF853
aF861
aF867
aF883
aF877
aF881
aF875
aF873
aF878
aF886
aF880
aF878
aF882
aF876
aF854
aF729
aF694
aF704
aF696
aF665
aF590
aF529
aF472
aF401
aF332
aF277
aF243
aF221
aF208
aF198
aF192
aF187
aF182
aF178
aF171
aF166
aF161
aF156
aF150
aF148
aF145
aF143
aF142
aF139
aF137
aF134
aF131
aF130
aF128
aF127
aF126
aF125
aF125
aF124
aF124
aF125
aF126
aF127
aF130
aF132
aF139
aF150
aF168
aF195
aF223
aF279
aF379
aF552
aF780
aF844
aF874
aF865
aF878
aF867
aF867
aF863
aF870
aF870
aF877
aF873
aF868
aF871
aF871
aF881
aF875
aF854
aF788
aF715
aF706
aF701
aF683
aF593
aF527
aF454
aF366
aF333
aF298
aF276
aF251
aF240
aF233
aF226
aF216
aF205
aF194
aF186
aF178
aF171
aF166
aF160
aF157
aF154
aF152
aF151
aF148
aF146
aF144
aF141
aF139
aF137
aF135
aF133
aF132
aF130
aF129
aF128
aF126
aF125
aF123
aF123
aF122
aF122
aF122
aF123
aF124
aF125
aF126
aF126
aF129
aF138
aF149
aF160
aF183
aF217
aF285
aF378
aF491
aF664
aF783
aF790
aF804
aF799
aF799
aF804
aF803
aF809
aF817
aF822
aF822
aF822
aF816
aF833
aF829
aF836
aF839
aF845
aF833
aF846
aF839
aF847
aF844
aF846
aF655
aF631
aF623
aF561
aF481
aF422
aF350
aF272
aF243
aF228
aF216
aF198
aF189
aF181
aF174
aF166
aF162
aF157
aF153
aF150
aF146
aF143
aF141
aF139
aF138
aF136
aF136
aF135
aF134
aF132
aF131
aF131
aF130
aF130
aF129
aF130
aF130
aF131
aF131
aF132
aF133
aF134
aF135
aF139
aF150
aF161
aF177
aF196
aF223
aF250
aF280
aF316
aF362
aF371
aF406
aF549
aF674
aF707
aF712
aF723
aF722
aF722
aF720
aF723
aF736
aF733
aF735
aF737
aF734
aF746
aF746
aF750
aF743
aF737
aF742
aF600
aF518
aF510
aF490
aF435
aF361
aF313
aF258
aF230
aF210
aF196
aF190
aF174
aF166
aF158
aF154
aF151
aF149
aF147
aF144
aF141
aF139
aF137
aF136
aF134
aF133
aF130
aF129
aF129
aF128
aF128
aF127
aF127
aF127
aF127
aF127
aF126
aF127
aF128
aF128
aF129
aF130
aF132
aF144
aF157
aF197
aF265
aF373
aF597
aF762
aF809
aF827
aF816
aF812
aF820
aF831
aF832
aF834
aF833
aF825
aF845
aF845
aF852
aF843
aF841
aF836
aF842
aF839
aF844
aF837
aF839
aF835
aF837
aF836
aF839
aF836
aF783
aF705
aF688
aF617
aF519
aF464
aF337
aF278
aF240
aF216
aF201
aF187
aF178
aF166
aF160
aF156
aF149
aF145
aF142
aF138
aF136
aF134
aF132
aF130
aF128
aF128
aF127
aF125
aF125
aF124
aF123
aF122
aF121
aF120
aF120
aF120
aF120
aF121
aF121
aF121
aF121
aF125
aF128
aF130
aF137
aF142
aF159
aF175
aF202
aF247
aF344
aF491
aF697
aF875
aF852
aF849
aF845
aF846
aF843
aF844
aF847
aF850
aF852
aF848
aF854
aF851
aF854
aF850
aF851
aF851
aF849
aF850
aF851
aF849
aF851
aF849
aF796
aF609
aF602
aF599
aF526
aF425
aF349
aF293
aF244
aF219
aF200
aF180
aF167
aF160
aF155
aF147
aF143
aF139
aF135
aF133
aF131
aF130
aF129
aF128
aF127
aF126
aF125
aF124
aF122
aF122
aF121
aF121
aF120
aF122
aF123
aF122
aF121
aF121
aF124
aF128
aF133
aF139
aF150
aF163
aF186
aF215
aF261
aF321
aF428
aF579
aF688
aF838
aF839
aF837
aF835
aF838
aF839
aF840
aF840
aF836
aF836
aF840
aF841
aF846
aF843
aF840
aF839
aF843
aF843
aF844
aF843
aF843
aF842
aF842
aF840
aF840
aF795
aF572
aF569
aF592
aF548
aF440
aF336
aF272
aF215
aF189
aF171
aF161
aF150
aF142
aF138
aF134
aF131
aF130
aF128
aF126
aF124
aF122
aF121
aF119
aF118
aF117
aF116
aF115
aF114
aF113
aF113
aF113
aF112
aF113
aF115
aF117
aF119
aF125
aF129
aF137
aF149
aF183
aF222
aF275
aF350
as.