(dp1
S'pull_up'
p2
F200
sS'contact_area'
p3
F0.00040000000000000002
sS'adc_bias'
p4
F1023
sS'ft'
p5
(lp6
cnumpy.core.multiarray
scalar
p7
(cnumpy
dtype
p8
(S'f4'
I0
I1
tRp9
(I3
S'<'
NNNI-1
I-1
I0
tbS'\x00\xa8\xb9\xbc'
tRp10
ag7
(g9
S'\x00\\M='
tRp11
ag7
(g9
S'\x00l\xa0<'
tRp12
ag7
(g9
S'\x00p\xcd;'
tRp13
ag7
(g9
S'\x00\xa0d<'
tRp14
ag7
(g9
S'\x00\xa0\x15='
tRp15
ag7
(g9
S'\x00<!='
tRp16
ag7
(g9
S'\x00l\x1f='
tRp17
ag7
(g9
S'\x00\xe0N;'
tRp18
ag7
(g9
S'\x00`\xf1;'
tRp19
ag7
(g9
S'\x00\x00\xd9\xba'
tRp20
ag7
(g9
S'\x00\x98{\xbc'
tRp21
ag7
(g9
S'\x00\xfc\xad\xbc'
tRp22
ag7
(g9
S'\x00\x80\x9f:'
tRp23
ag7
(g9
S"\x00\x00'\xba"
tRp24
ag7
(g9
S'\x00(\x13\xbc'
tRp25
ag7
(g9
S'\x00`\x14\xbd'
tRp26
ag7
(g9
S'\x00\x10\x0c\xbc'
tRp27
ag7
(g9
S'\x00R\x12\xbd'
tRp28
ag7
(g9
S'\x00He<'
tRp29
ag7
(g9
S'\x00H\x13<'
tRp30
ag7
(g9
S'\x00\xe0\x8b\xbc'
tRp31
ag7
(g9
S'\x00\x16&='
tRp32
ag7
(g9
S'\x00\xeat='
tRp33
ag7
(g9
S'\x00K\x86='
tRp34
ag7
(g9
S'\x00\x12\x8d='
tRp35
ag7
(g9
S'\x00\t\x88='
tRp36
ag7
(g9
S'\x00\x82\x8a='
tRp37
ag7
(g9
S'\x00\x80\xc5<'
tRp38
ag7
(g9
S'\x00`Z\xbb'
tRp39
ag7
(g9
S'\x00hi<'
tRp40
ag7
(g9
S'\x00\xac\xab\xbc'
tRp41
ag7
(g9
S'\x00\xe8&<'
tRp42
ag7
(g9
S'\x00\xa2\x12\xbd'
tRp43
ag7
(g9
S'\x00f3\xbd'
tRp44
ag7
(g9
S'\x008\xe2\xbc'
tRp45
ag7
(g9
S'\x00@\xd2\xbb'
tRp46
ag7
(g9
S'\x00\xe0\x13\xbc'
tRp47
ag7
(g9
S'\x002%\xbd'
tRp48
ag7
(g9
S'\x00\xa4\x05\xbd'
tRp49
ag7
(g9
S'\x00J\x0b\xbd'
tRp50
ag7
(g9
S'\x00\xd8k<'
tRp51
ag7
(g9
S'\x00\xd7\x9e='
tRp52
ag7
(g9
S'\x00\x0c\xc2='
tRp53
ag7
(g9
S'\x00M\xa8='
tRp54
ag7
(g9
S'\x00|\xb4='
tRp55
ag7
(g9
S'\x00\xaf\x92='
tRp56
ag7
(g9
S'\x00JF='
tRp57
ag7
(g9
S'\x00\xf2\x15='
tRp58
ag7
(g9
S'\x00$f='
tRp59
ag7
(g9
S'\x00j6='
tRp60
ag7
(g9
S'\x80\x12\x10>'
tRp61
ag7
(g9
S'\x80\x93\x86>'
tRp62
ag7
(g9
S'\x80!\xea>'
tRp63
ag7
(g9
S'`[K?'
tRp64
ag7
(g9
S'\xf0\x8d\xad?'
tRp65
ag7
(g9
S'H8\x0c@'
tRp66
ag7
(g9
S'\x08\xc4M@'
tRp67
ag7
(g9
S'l\xc5\xa1@'
tRp68
ag7
(g9
S'\xfc\x11\xd5@'
tRp69
ag7
(g9
S'\xfc\xd9\xf3@'
tRp70
ag7
(g9
S'\x06\xd1\x19A'
tRp71
ag7
(g9
S'n"NA'
tRp72
ag7
(g9
S'\xd2kpA'
tRp73
ag7
(g9
S'e\x96\x89A'
tRp74
ag7
(g9
S'S\xc3\x9cA'
tRp75
ag7
(g9
S'\xc3\x1c\xb2A'
tRp76
ag7
(g9
S'=\x8b\xbdA'
tRp77
ag7
(g9
S'\xb1\x1a\xd5A'
tRp78
ag7
(g9
S'\x11\xb5\xf7A'
tRp79
ag7
(g9
S'\xb2\xa7\x06B'
tRp80
ag7
(g9
S'\xa6\x96\x11B'
tRp81
ag7
(g9
S'^\xb7\x1cB'
tRp82
ag7
(g9
S'f\x91-B'
tRp83
ag7
(g9
S'`\xcb7B'
tRp84
ag7
(g9
S'`\xcb7B'
tRp85
ag7
(g9
S'j\xd4FB'
tRp86
ag7
(g9
S'LrJB'
tRp87
ag7
(g9
S'f\xbbKB'
tRp88
ag7
(g9
S'\x96XJB'
tRp89
ag7
(g9
S'\xe6\xabHB'
tRp90
ag7
(g9
S'\n\xc5?B'
tRp91
ag7
(g9
S'8k6B'
tRp92
ag7
(g9
S'\xba\x80*B'
tRp93
ag7
(g9
S'2\xc7\x1cB'
tRp94
ag7
(g9
S'\xde\xe5\x06B'
tRp95
ag7
(g9
S'9\x01\xffA'
tRp96
ag7
(g9
S'\xbfb\xd1A'
tRp97
ag7
(g9
S'K%\xb5A'
tRp98
ag7
(g9
S'oX\x9aA'
tRp99
ag7
(g9
S'\xdb\xbc\x80A'
tRp100
ag7
(g9
S'J\rTA'
tRp101
ag7
(g9
S'n:@A'
tRp102
ag7
(g9
S'^\x18\x1dA'
tRp103
ag7
(g9
S'\xaeE\x01A'
tRp104
ag7
(g9
S'L_\xd5@'
tRp105
ag7
(g9
S'\x04>\x9e@'
tRp106
ag7
(g9
S'\xd4`\x80@'
tRp107
ag7
(g9
S'\x08\x8aO@'
tRp108
ag7
(g9
S'(N&@'
tRp109
ag7
(g9
S'\x888\x06@'
tRp110
ag7
(g9
S'\xd0~\xdc?'
tRp111
ag7
(g9
S'\xd0\xfb\xb9?'
tRp112
ag7
(g9
S'01\xa7?'
tRp113
ag7
(g9
S'\xb0"\x9a?'
tRp114
ag7
(g9
S'\x90\xca\x90?'
tRp115
ag7
(g9
S'\x10\x97\x87?'
tRp116
ag7
(g9
S'0\xda\x81?'
tRp117
ag7
(g9
S' \xfb\x7f?'
tRp118
ag7
(g9
S'\xe0o}?'
tRp119
ag7
(g9
S'\x10\x8d\x84?'
tRp120
ag7
(g9
S'0\xe6\x96?'
tRp121
ag7
(g9
S'\x904\xad?'
tRp122
ag7
(g9
S'\xd0=\xc6?'
tRp123
ag7
(g9
S'\xf0\x1f\xdf?'
tRp124
ag7
(g9
S'\x98\x1c\x01@'
tRp125
ag7
(g9
S'\x18\xe6\x19@'
tRp126
ag7
(g9
S'\xe8z9@'
tRp127
ag7
(g9
S'\x98\xd3`@'
tRp128
ag7
(g9
S'L\xe5\x87@'
tRp129
ag7
(g9
S'\xf4u\xa7@'
tRp130
ag7
(g9
S'\xd4P\xd5@'
tRp131
ag7
(g9
S'\x8a\x83\nA'
tRp132
ag7
(g9
S'\xce\xae0A'
tRp133
ag7
(g9
S'\x12\x11VA'
tRp134
ag7
(g9
S'\xeaLyA'
tRp135
ag7
(g9
S'e\x16\x8eA'
tRp136
ag7
(g9
S')\xe3\xa0A'
tRp137
ag7
(g9
S'\r\xe6\xb4A'
tRp138
ag7
(g9
S'#\x82\xc8A'
tRp139
ag7
(g9
S'\xa9\xcc\xe5A'
tRp140
ag7
(g9
S'\xef\xdd\xf8A'
tRp141
ag7
(g9
S'\x12\xeb\x05B'
tRp142
ag7
(g9
S'`c\x0fB'
tRp143
ag7
(g9
S'\xb2\xc8\x18B'
tRp144
ag7
(g9
S'\xaeh"B'
tRp145
ag7
(g9
S'\\8,B'
tRp146
ag7
(g9
S'\xd4\xca6B'
tRp147
ag7
(g9
S'V\xe9AB'
tRp148
ag7
(g9
S'6\x7fJB'
tRp149
ag7
(g9
S'\xbcuPB'
tRp150
ag7
(g9
S'\xd6\xf1TB'
tRp151
ag7
(g9
S'(-UB'
tRp152
ag7
(g9
S'J\x06PB'
tRp153
ag7
(g9
S'\x0c\x83IB'
tRp154
ag7
(g9
S'\xe8sAB'
tRp155
ag7
(g9
S'p\xc25B'
tRp156
ag7
(g9
S"\x16h'B"
tRp157
ag7
(g9
S'\x96h B'
tRp158
ag7
(g9
S'l\x10\rB'
tRp159
ag7
(g9
S'\x91Z\xffA'
tRp160
ag7
(g9
S'W\xc4\xe3A'
tRp161
ag7
(g9
S'aV\xc7A'
tRp162
ag7
(g9
S'\xd7\xdc\xabA'
tRp163
ag7
(g9
S'\x19\x8d\x92A'
tRp164
ag7
(g9
S'N\xfbvA'
tRp165
ag7
(g9
S'N\x19NA'
tRp166
ag7
(g9
S'\xa6\\)A'
tRp167
ag7
(g9
S'\xde\x8b\nA'
tRp168
ag7
(g9
S'\xec\xf1\xe3@'
tRp169
ag7
(g9
S'\xc4\xc0\xbc@'
tRp170
ag7
(g9
S'4\xf2\x9d@'
tRp171
ag7
(g9
S'\xfc\xce\x86@'
tRp172
ag7
(g9
S'\xa8\xd4k@'
tRp173
ag7
(g9
S'\xd8\x88+@'
tRp174
ag7
(g9
S'\xc8e\x04@'
tRp175
ag7
(g9
S'\xb0\xda\xe5?'
tRp176
ag7
(g9
S'\x10o\xae?'
tRp177
ag7
(g9
S'`\x91l?'
tRp178
ag7
(g9
S'\xe0W:?'
tRp179
ag7
(g9
S'\x80\xd0\x0c?'
tRp180
ag7
(g9
S'\xc0R\xe5>'
tRp181
ag7
(g9
S'\x80\x01\xb4>'
tRp182
ag7
(g9
S'\x00_n>'
tRp183
ag7
(g9
S'\x00\xf19>'
tRp184
ag7
(g9
S'\x00\x97&>'
tRp185
ag7
(g9
S'\x80\x97h>'
tRp186
ag7
(g9
S'@G\xb0>'
tRp187
ag7
(g9
S'\x00\x84\xe1>'
tRp188
ag7
(g9
S'\xc0\xe2\xfe>'
tRp189
ag7
(g9
S'@\xd1\xf0>'
tRp190
ag7
(g9
S'\x80\x1a\xfb>'
tRp191
ag7
(g9
S'\x80\xf0\xf6>'
tRp192
ag7
(g9
S'\x80\x03\x13?'
tRp193
ag7
(g9
S'\xa0\xc3O?'
tRp194
ag7
(g9
S'\xf0\xb9\x8c?'
tRp195
ag7
(g9
S'\xb0\x05\xbb?'
tRp196
ag7
(g9
S'\xf8]\x01@'
tRp197
ag7
(g9
S'8*1@'
tRp198
ag7
(g9
S'\x98\x80Q@'
tRp199
ag7
(g9
S'\x14\x02\x90@'
tRp200
ag7
(g9
S'|A\xc3@'
tRp201
ag7
(g9
S'D\xb7\xfd@'
tRp202
ag7
(g9
S'.\xb5\x1dA'
tRp203
ag7
(g9
S'\xca%>A'
tRp204
ag7
(g9
S'z\nqA'
tRp205
ag7
(g9
S'\xe5Q\x89A'
tRp206
ag7
(g9
S'\x8b]\x9aA'
tRp207
ag7
(g9
S'\x99\xf4\xadA'
tRp208
ag7
(g9
S'\x83^\xc4A'
tRp209
ag7
(g9
S'_+\xdaA'
tRp210
ag7
(g9
S'E\xab\xf8A'
tRp211
ag7
(g9
S'\x9e\xf4\x06B'
tRp212
ag7
(g9
S'\xdc\xca\x11B'
tRp213
ag7
(g9
S'B\xe8\x1bB'
tRp214
ag7
(g9
S'\xc2\xdc$B'
tRp215
ag7
(g9
S'\x8aw-B'
tRp216
ag7
(g9
S'\x9aR6B'
tRp217
ag7
(g9
S'@\x11?B'
tRp218
ag7
(g9
S'\x8a\xc1FB'
tRp219
ag7
(g9
S'\x8e\x04MB'
tRp220
ag7
(g9
S'p\x1cSB'
tRp221
ag7
(g9
S'p\x15XB'
tRp222
ag7
(g9
S'\x90>YB'
tRp223
ag7
(g9
S'\xd2UUB'
tRp224
ag7
(g9
S'\xbetNB'
tRp225
ag7
(g9
S'\x92\x97>B'
tRp226
ag7
(g9
S'\xe2\xf7/B'
tRp227
ag7
(g9
S'zg(B'
tRp228
ag7
(g9
S'\x18\x00\x19B'
tRp229
ag7
(g9
S'\x92\xee\x08B'
tRp230
ag7
(g9
S'A\xfc\xf0A'
tRp231
ag7
(g9
S'\xe99\xd0A'
tRp232
ag7
(g9
S'\x1b\x93\xb0A'
tRp233
ag7
(g9
S'[\xfb\xa0A'
tRp234
ag7
(g9
S'\xe2\xb4nA'
tRp235
ag7
(g9
S'.\xb5*A'
tRp236
ag7
(g9
S'"\xc9\x05A'
tRp237
ag7
(g9
S'\x1c6\xea@'
tRp238
ag7
(g9
S'\x94A\x9c@'
tRp239
ag7
(g9
S'\xe4\x10\x89@'
tRp240
ag7
(g9
S'X\xda/@'
tRp241
ag7
(g9
S'\xc8Y\x05@'
tRp242
ag7
(g9
S'\xb0\x1e\xca?'
tRp243
ag7
(g9
S'p\xeb\x8f?'
tRp244
ag7
(g9
S' \x0bk?'
tRp245
ag7
(g9
S'`\xe6:?'
tRp246
ag7
(g9
S'\x80\xe3 ?'
tRp247
ag7
(g9
S'@\xaf\x14?'
tRp248
ag7
(g9
S'\x00\xf2\x06?'
tRp249
ag7
(g9
S'\x807\xfd>'
tRp250
ag7
(g9
S'\x80I\xe5>'
tRp251
ag7
(g9
S'\xc0q\xd8>'
tRp252
ag7
(g9
S'\x00\xfd\xd2>'
tRp253
ag7
(g9
S'\xc0\xbb\xd9>'
tRp254
ag7
(g9
S'\xc0\x9e\xd5>'
tRp255
ag7
(g9
S'\x00#\xd6>'
tRp256
ag7
(g9
S'@\x94\x16?'
tRp257
ag7
(g9
S'\xa0\xa7L?'
tRp258
ag7
(g9
S'\xd0\x92\x82?'
tRp259
ag7
(g9
S'\xd0\xe0\xa3?'
tRp260
ag7
(g9
S'\xf0\xd3\xcc?'
tRp261
ag7
(g9
S'\xb0,\xec?'
tRp262
ag7
(g9
S'\xc8\xad\x07@'
tRp263
ag7
(g9
S'\x18\xe6\x19@'
tRp264
ag7
(g9
S'\xd8\xa4.@'
tRp265
ag7
(g9
S'\xc8\xc8B@'
tRp266
ag7
(g9
S'H\x17T@'
tRp267
ag7
(g9
S'\x98\xbco@'
tRp268
ag7
(g9
S'\x0c\xb2\x8a@'
tRp269
ag7
(g9
S'$?\xa8@'
tRp270
ag7
(g9
S'\xfc5\xcc@'
tRp271
ag7
(g9
S'v\xa9\x0cA'
tRp272
ag7
(g9
S'./.A'
tRp273
ag7
(g9
S'\xca\x7fTA'
tRp274
ag7
(g9
S'6o~A'
tRp275
ag7
(g9
S'\xfb\xfd\x95A'
tRp276
ag7
(g9
S'\x03T\xaeA'
tRp277
ag7
(g9
S'\xdb\x93\xc7A'
tRp278
ag7
(g9
S'O,\xe2A'
tRp279
ag7
(g9
S'\x81e\xfdA'
tRp280
ag7
(g9
S'"~\x0cB'
tRp281
ag7
(g9
S'\xf8=\x1aB'
tRp282
ag7
(g9
S'\xb4\x84(B'
tRp283
ag7
(g9
S'j\xeb:B'
tRp284
ag7
(g9
S'\x1a\x17DB'
tRp285
ag7
(g9
S'~/KB'
tRp286
ag7
(g9
S'\xf2\xfdPB'
tRp287
ag7
(g9
S'\xa2\xd8UB'
tRp288
ag7
(g9
S'l\xaaYB'
tRp289
ag7
(g9
S'j\xbf\\B'
tRp290
ag7
(g9
S'vu^B'
tRp291
ag7
(g9
S'^\x12^B'
tRp292
ag7
(g9
S'\xdc \\B'
tRp293
ag7
(g9
S'\x8a\xf3ZB'
tRp294
ag7
(g9
S'\xde}RB'
tRp295
ag7
(g9
S'\xb6\x83MB'
tRp296
ag7
(g9
S'\x04o9B'
tRp297
ag7
(g9
S'\xf6\x15)B'
tRp298
ag7
(g9
S'p\x97\x17B'
tRp299
ag7
(g9
S'ty\x05B'
tRp300
ag7
(g9
S'\xf5\x8a\xd4A'
tRp301
ag7
(g9
S'\xcbv\xb2A'
tRp302
ag7
(g9
S'\xc9\x94\x94A'
tRp303
ag7
(g9
S'^\xf7uA'
tRp304
ag7
(g9
S'\xaa\xc8HA'
tRp305
ag7
(g9
S'\xde\xd6 A'
tRp306
ag7
(g9
S'|\x0e\xfd@'
tRp307
ag7
(g9
S'l~\xc3@'
tRp308
ag7
(g9
S'$\xca\x95@'
tRp309
ag7
(g9
S'\xc8\x17e@'
tRp310
ag7
(g9
S'8P*@'
tRp311
ag7
(g9
S'p\x81\xfe?'
tRp312
ag7
(g9
S'0\x03\xbc?'
tRp313
ag7
(g9
S'\xd0\xed\x90?'
tRp314
ag7
(g9
S'\xa0SY?'
tRp315
ag7
(g9
S'\xc0R\x16?'
tRp316
ag7
(g9
S'\xc0\xd3\xcf>'
tRp317
ag7
(g9
S'\x00\xfb\x8c>'
tRp318
ag7
(g9
S'\x80\xd9e>'
tRp319
ag7
(g9
S'\x00\xb52>'
tRp320
ag7
(g9
S'\x00\x14">'
tRp321
ag7
(g9
S'\x00d\xae='
tRp322
ag7
(g9
S'\x00\xaeh='
tRp323
ag7
(g9
S'\x00\xea7='
tRp324
ag7
(g9
S'\x00\x1an='
tRp325
ag7
(g9
S'\x00\x16d='
tRp326
ag7
(g9
S'\x00\x00\x9c\xb9'
tRp327
ag7
(g9
S'\x00 \xbc\xbb'
tRp328
ag7
(g9
S'\x00\x80J\xbd'
tRp329
ag7
(g9
S'\x00|\xfb\xbc'
tRp330
ag7
(g9
S'\x00\xb8Z\xbc'
tRp331
ag7
(g9
S'\x00$(\xbd'
tRp332
ag7
(g9
S'\x00\xff\xa2\xbd'
tRp333
ag7
(g9
S'\x00\x18\x1c\xbd'
tRp334
ag7
(g9
S'\x00\x1eS\xbd'
tRp335
ag7
(g9
S'\x00\x18\xd8\xbc'
tRp336
ag7
(g9
S'\x00d\xef<'
tRp337
ag7
(g9
S'\x00>\x9b='
tRp338
ag7
(g9
S'\x80j\x19>'
tRp339
ag7
(g9
S'\xc0I\x94>'
tRp340
ag7
(g9
S'\x80&\x17?'
tRp341
ag7
(g9
S'\xb0\xfb\x8a?'
tRp342
ag7
(g9
S'\x90(\xf2?'
tRp343
ag7
(g9
S'8}L@'
tRp344
ag7
(g9
S'\xc4)\xa4@'
tRp345
ag7
(g9
S'Tr\xf3@'
tRp346
ag7
(g9
S'Z^"A'
tRp347
ag7
(g9
S'n\xedQA'
tRp348
ag7
(g9
S'\x9f\xe5\x84A'
tRp349
ag7
(g9
S'\xbd\x80\xa3A'
tRp350
ag7
(g9
S'\x11\xd7\xc2A'
tRp351
ag7
(g9
S'\xedi\xe1A'
tRp352
ag7
(g9
S'gl\xfdA'
tRp353
ag7
(g9
S'J\xd0\x0bB'
tRp354
ag7
(g9
S'\xc8\xb2\x17B'
tRp355
ag7
(g9
S'\xd6#!B'
tRp356
ag7
(g9
S'\xdc\xa7(B'
tRp357
ag7
(g9
S'\x1e\xa5.B'
tRp358
ag7
(g9
S'\x84\xa32B'
tRp359
ag7
(g9
S'\xb8\x166B'
tRp360
ag7
(g9
S'Z\xff8B'
tRp361
ag7
(g9
S'\xa6\x95;B'
tRp362
ag7
(g9
S'Je>B'
tRp363
ag7
(g9
S'|\xcdCB'
tRp364
ag7
(g9
S'|\xcdCB'
tRp365
ag7
(g9
S'F\xfdIB'
tRp366
ag7
(g9
S'l\x8cMB'
tRp367
ag7
(g9
S'\xe4FPB'
tRp368
ag7
(g9
S'$uNB'
tRp369
ag7
(g9
S'^&HB'
tRp370
ag7
(g9
S'T4CB'
tRp371
ag7
(g9
S'\xec\xef.B'
tRp372
ag7
(g9
S'\xb0W\x1eB'
tRp373
ag7
(g9
S'f\xdb\x0cB'
tRp374
ag7
(g9
S'\xed#\xf8A'
tRp375
ag7
(g9
S'c\xad\xd8A'
tRp376
ag7
(g9
S'\x07\xda\xbaA'
tRp377
ag7
(g9
S'\xf5S\x9fA'
tRp378
ag7
(g9
S'\x0f\xda\x86A'
tRp379
ag7
(g9
S'\xa2\xabOA'
tRp380
ag7
(g9
S'\xee\xe8>A'
tRp381
ag7
(g9
S'b\x7f\x1fA'
tRp382
ag7
(g9
S'|Q\xf2@'
tRp383
ag7
(g9
S'\x94P\xc6@'
tRp384
ag7
(g9
S'\xcc\xc1\xa4@'
tRp385
ag7
(g9
S'D\xd4\x89@'
tRp386
ag7
(g9
S"('k@"
tRp387
ag7
(g9
S'H!L@'
tRp388
ag7
(g9
S'\xf8J4@'
tRp389
ag7
(g9
S'\x88^$@'
tRp390
ag7
(g9
S'\xa8\xb9\x19@'
tRp391
ag7
(g9
S'X-\x13@'
tRp392
ag7
(g9
S'\x88\x82\x0e@'
tRp393
ag7
(g9
S'\xf8\x8f\n@'
tRp394
ag7
(g9
S'h\x8c\x05@'
tRp395
ag7
(g9
S'\xb8b\x03@'
tRp396
ag7
(g9
S'\xe8\x8c\x01@'
tRp397
ag7
(g9
S'x\xd8\x00@'
tRp398
ag7
(g9
S'\xd8y\x00@'
tRp399
ag7
(g9
S'h\x93\x00@'
tRp400
ag7
(g9
S'\xe8h\x03@'
tRp401
ag7
(g9
S'XU\x00@'
tRp402
ag7
(g9
S'\x90h\xff?'
tRp403
ag7
(g9
S'p{\xfe?'
tRp404
ag7
(g9
S'\xf8X\x00@'
tRp405
ag7
(g9
S'\x88D\x01@'
tRp406
ag7
(g9
S'\xc8:\x02@'
tRp407
ag7
(g9
S'8P\x00@'
tRp408
ag7
(g9
S'\xd8\x13\x02@'
tRp409
ag7
(g9
S'\xb8h\x07@'
tRp410
ag7
(g9
S'\xd8\x98\x13@'
tRp411
ag7
(g9
S'\xe8)+@'
tRp412
ag7
(g9
S'\x08P8@'
tRp413
ag7
(g9
S'({q@'
tRp414
ag7
(g9
S'\x14\xd7\xa3@'
tRp415
ag7
(g9
S'$A\xcf@'
tRp416
ag7
(g9
S'.\xff\x02A'
tRp417
ag7
(g9
S'\x962"A'
tRp418
ag7
(g9
S'."EA'
tRp419
ag7
(g9
S'\x12\x11WA'
tRp420
ag7
(g9
S'2"|A'
tRp421
ag7
(g9
S'\xc1\xcb\x9cA'
tRp422
ag7
(g9
S'\xfbK\xb2A'
tRp423
ag7
(g9
S'\xab\xc6\xbcA'
tRp424
ag7
(g9
S'\x07\xb1\xdbA'
tRp425
ag7
(g9
S'\xb3\x11\xefA'
tRp426
ag7
(g9
S'p0\x01B'
tRp427
ag7
(g9
S'\xd6\x8a\nB'
tRp428
ag7
(g9
S'\x1e\xf4\x13B'
tRp429
ag7
(g9
S'\xe6\x17\x1dB'
tRp430
ag7
(g9
S'f\xfc%B'
tRp431
ag7
(g9
S'\xa0%/B'
tRp432
ag7
(g9
S'\xa6\x16<B'
tRp433
ag7
(g9
S'"\x8eCB'
tRp434
ag7
(g9
S'D\xd5IB'
tRp435
ag7
(g9
S'\x08\xf7LB'
tRp436
ag7
(g9
S'0\xd0LB'
tRp437
ag7
(g9
S'(6KB'
tRp438
ag7
(g9
S'\x08\x93HB'
tRp439
ag7
(g9
S'T\xabAB'
tRp440
ag7
(g9
S'\x14);B'
tRp441
ag7
(g9
S'Pb3B'
tRp442
ag7
(g9
S'\xaao+B'
tRp443
ag7
(g9
S'\x8aX#B'
tRp444
ag7
(g9
S'*\xc2\x1aB'
tRp445
ag7
(g9
S'\x9c\x12\x11B'
tRp446
ag7
(g9
S',}\x06B'
tRp447
ag7
(g9
S'?\xf6\xf5A'
tRp448
ag7
(g9
S'+\xf7\xdcA'
tRp449
ag7
(g9
S'e\xa5\xc2A'
tRp450
ag7
(g9
S'\xc3t\xa8A'
tRp451
ag7
(g9
S'\x97U\x8fA'
tRp452
ag7
(g9
S'\x92WoA'
tRp453
ag7
(g9
S'\xc2\x86/A'
tRp454
ag7
(g9
S'\x9a\xd3\x1cA'
tRp455
ag7
(g9
S'd\xed\xf8@'
tRp456
ag7
(g9
S'|N\xc2@'
tRp457
ag7
(g9
S'\xec,\x96@'
tRp458
ag7
(g9
S'\xb8\x99c@'
tRp459
ag7
(g9
S'xG\x0e@'
tRp460
ag7
(g9
S'p3\xd1?'
tRp461
ag7
(g9
S'\xb0\x15\x94?'
tRp462
ag7
(g9
S'`\x11Q?'
tRp463
ag7
(g9
S' \x86=?'
tRp464
ag7
(g9
S'\xc0:\xdc>'
tRp465
ag7
(g9
S'@,\xa6>'
tRp466
ag7
(g9
S'\x80\r\x80>'
tRp467
ag7
(g9
S'\x00\xe3\x1f>'
tRp468
ag7
(g9
S'\x00{\xf0='
tRp469
ag7
(g9
S'\x00\xaa\xc0='
tRp470
ag7
(g9
S'\x00\xb0\xc9='
tRp471
ag7
(g9
S'\x000\xb8='
tRp472
ag7
(g9
S'\x00\xf8\xa7<'
tRp473
ag7
(g9
S'\x00pA<'
tRp474
ag7
(g9
S'\x00`\x01;'
tRp475
ag7
(g9
S'\x00\x008;'
tRp476
ag7
(g9
S'\x00\x84\x0f\xbd'
tRp477
ag7
(g9
S'\x00\\\x06\xbd'
tRp478
ag7
(g9
S'\x00\xe8a\xbc'
tRp479
ag7
(g9
S'\x00\xd0q\xbc'
tRp480
ag7
(g9
S'\x00\xea(\xbd'
tRp481
ag7
(g9
S'\x00\x96"\xbd'
tRp482
ag7
(g9
S'\x00\x9e\x98\xbd'
tRp483
ag7
(g9
S'\x00\x90\xe7\xbc'
tRp484
ag7
(g9
S'\x00\n-='
tRp485
ag7
(g9
S'\x80W\x8b>'
tRp486
ag7
(g9
S'@Y\xef>'
tRp487
ag7
(g9
S'\x00\xb0\x16?'
tRp488
ag7
(g9
S'\xe0\xeeb?'
tRp489
ag7
(g9
S'\x90\xaa\xcb?'
tRp490
ag7
(g9
S'\xd8\xa8)@'
tRp491
ag7
(g9
S'|\x9b\x81@'
tRp492
ag7
(g9
S'\x1c\x8d\xb9@'
tRp493
ag7
(g9
S'<\x11\xd8@'
tRp494
ag7
(g9
S'2\x94\x1dA'
tRp495
ag7
(g9
S'V\x0eAA'
tRp496
ag7
(g9
S'.\x8feA'
tRp497
ag7
(g9
S'\xb1\x92\x85A'
tRp498
ag7
(g9
S'\x91\xe1\x98A'
tRp499
ag7
(g9
S's?\xadA'
tRp500
ag7
(g9
S'\xf3\xd4\xc1A'
tRp501
ag7
(g9
S'\x1b\x85\xd7A'
tRp502
ag7
(g9
S'q\xd2\xedA'
tRp503
ag7
(g9
S'n\xe9\x02B'
tRp504
ag7
(g9
S'\\\x91\x17B'
tRp505
ag7
(g9
S'\xa8a#B'
tRp506
ag7
(g9
S'$\x85(B'
tRp507
ag7
(g9
S'\x06\xdb1B'
tRp508
ag7
(g9
S'\xb6\x92=B'
tRp509
ag7
(g9
S'\xb6\x92=B'
tRp510
ag7
(g9
S'\xf0THB'
tRp511
ag7
(g9
S'\x84\xb1OB'
tRp512
ag7
(g9
S'\x8a\xd7UB'
tRp513
ag7
(g9
S'\x00\xf7ZB'
tRp514
ag7
(g9
S'f7\\B'
tRp515
ag7
(g9
S'Jf]B'
tRp516
ag7
(g9
S'0(\\B'
tRp517
ag7
(g9
S'|NUB'
tRp518
ag7
(g9
S'\x1c%JB'
tRp519
ag7
(g9
S'J\xcaAB'
tRp520
ag7
(g9
S'\xa4\xc96B'
tRp521
ag7
(g9
S'\xa2\x970B'
tRp522
ag7
(g9
S'd\xca\x1dB'
tRp523
ag7
(g9
S'\x16.\x10B'
tRp524
ag7
(g9
S'\xa42\x01B'
tRp525
ag7
(g9
S'\x1f@\xe3A'
tRp526
ag7
(g9
S'\xfb\xd6\xc4A'
tRp527
ag7
(g9
S'ow\xa6A'
tRp528
ag7
(g9
S'\xa7\x90\x88A'
tRp529
ag7
(g9
S'J\xcfWA'
tRp530
ag7
(g9
S'\x02$>A'
tRp531
ag7
(g9
S'\x1c \xf7@'
tRp532
ag7
(g9
S'$t\xb7@'
tRp533
ag7
(g9
S'\x9c8\x86@'
tRp534
ag7
(g9
S'\xc8sA@'
tRp535
ag7
(g9
S'\x08O\x0b@'
tRp536
ag7
(g9
S'\x10\x03\xc9?'
tRp537
ag7
(g9
S'\x90\x83\xae?'
tRp538
ag7
(g9
S'\xe0\x93Z?'
tRp539
ag7
(g9
S'`\x94\x1f?'
tRp540
ag7
(g9
S'\xc0\x0f\xdb>'
tRp541
ag7
(g9
S'\xc0\xd3\x98>'
tRp542
ag7
(g9
S'\x809t>'
tRp543
ag7
(g9
S'\x80\xc10>'
tRp544
ag7
(g9
S'\x80)\x19>'
tRp545
ag7
(g9
S'\x00\xc8\x9f='
tRp546
ag7
(g9
S'\x00\xb8\x99='
tRp547
ag7
(g9
S'\x000X<'
tRp548
ag7
(g9
S'\x00hM\xbc'
tRp549
ag7
(g9
S'\x00\xbe\x1e\xbd'
tRp550
ag7
(g9
S'\x00\xb4\xcc\xbc'
tRp551
ag7
(g9
S'\x00@?\xbc'
tRp552
ag7
(g9
S'\x00\xdc\x0e\xbd'
tRp553
ag7
(g9
S'\x00\xaaL\xbd'
tRp554
ag7
(g9
S'\x00,\x8a\xbc'
tRp555
ag7
(g9
S'\x00\x88a\xbd'
tRp556
ag7
(g9
S'\x00\xacN\xbd'
tRp557
ag7
(g9
S'\x00VJ\xbd'
tRp558
ag7
(g9
S'\x00\xe8\xdd\xbc'
tRp559
ag7
(g9
S'\x00\x90\x83\xbc'
tRp560
ag7
(g9
S'\x00\xf8@\xbd'
tRp561
ag7
(g9
S'\x00@(\xbd'
tRp562
ag7
(g9
S'\x00\xe0\xf3\xbc'
tRp563
ag7
(g9
S'\x00\x80\xee\xbb'
tRp564
ag7
(g9
S'\x00\x00P<'
tRp565
ag7
(g9
S'\x00\xc0\x8b\xba'
tRp566
ag7
(g9
S'\x00\xa4\xcf\xbc'
tRp567
ag7
(g9
S'\x00^\x0c='
tRp568
ag7
(g9
S'\x00\xe8\xab<'
tRp569
ag7
(g9
S'\x00%\t>'
tRp570
ag7
(g9
S'\xc0\x16\x8e>'
tRp571
ag7
(g9
S'\x003\x02?'
tRp572
ag7
(g9
S' \x12r?'
tRp573
ag7
(g9
S'\x90\xe9\xcf?'
tRp574
ag7
(g9
S'\xf8u%@'
tRp575
ag7
(g9
S'(|y@'
tRp576
ag7
(g9
S'\x04\x0e\xae@'
tRp577
ag7
(g9
S'\xe2\x0e\x04A'
tRp578
ag7
(g9
S'f\xbf$A'
tRp579
ag7
(g9
S'\xc6\xf5GA'
tRp580
ag7
(g9
S'\xee6nA'
tRp581
ag7
(g9
S'\x11`\x8bA'
tRp582
ag7
(g9
S'\x85\xd0\xa0A'
tRp583
ag7
(g9
S'e\xc1\xb6A'
tRp584
ag7
(g9
S'\x9b"\xcdA'
tRp585
ag7
(g9
S'\x974\xe4A'
tRp586
ag7
(g9
S'\x81J\xfaA'
tRp587
ag7
(g9
S'\xde\x8e\x07B'
tRp588
ag7
(g9
S'\xc0\xa2\x11B'
tRp589
ag7
(g9
S'\xd8L\x1bB'
tRp590
ag7
(g9
S'\xf4!%B'
tRp591
ag7
(g9
S'\x14\x9b.B'
tRp592
ag7
(g9
S'\xa8\xba7B'
tRp593
ag7
(g9
S'\xc4\xdc?B'
tRp594
ag7
(g9
S':\xb1FB'
tRp595
ag7
(g9
S'\xb4CLB'
tRp596
ag7
(g9
S'\nxPB'
tRp597
ag7
(g9
S'8bSB'
tRp598
ag7
(g9
S'\xf8\xecSB'
tRp599
ag7
(g9
S'\x18\x05TB'
tRp600
ag7
(g9
S'\n\xb3RB'
tRp601
ag7
(g9
S'J\xfdNB'
tRp602
ag7
(g9
S'F>IB'
tRp603
ag7
(g9
S'\x865BB'
tRp604
ag7
(g9
S'\xe4\xf54B'
tRp605
ag7
(g9
S'\xb6\x93/B'
tRp606
ag7
(g9
S'\xac7\x1cB'
tRp607
ag7
(g9
S'\xf2\xc9\x0cB'
tRp608
ag7
(g9
S'9\x8d\xf9A'
tRp609
ag7
(g9
S'\xb39\xdaA'
tRp610
ag7
(g9
S'\xb5\xd5\xbbA'
tRp611
ag7
(g9
S'\xc7\x82\x9eA'
tRp612
ag7
(g9
S'\x7f\xa2\x82A'
tRp613
ag7
(g9
S':vQA'
tRp614
ag7
(g9
S'\xfa\x04$A'
tRp615
ag7
(g9
S'\x0c\xb2\xf9@'
tRp616
ag7
(g9
S'\xb4\t\xb9@'
tRp617
ag7
(g9
S'\xbc\xb6\x86@'
tRp618
ag7
(g9
S'\xb8)C@'
tRp619
ag7
(g9
S'\x90\xad\xfa?'
tRp620
ag7
(g9
S'\x900\xb4?'
tRp621
ag7
(g9
S'0_\x83?'
tRp622
ag7
(g9
S'`\x82>?'
tRp623
ag7
(g9
S'\xc0\xe5\r?'
tRp624
ag7
(g9
S'\x80\x93\xd5>'
tRp625
ag7
(g9
S'@\xbb\xa0>'
tRp626
ag7
(g9
S'\x80ZP>'
tRp627
ag7
(g9
S'\x80:\x17>'
tRp628
ag7
(g9
S'\x80\xbe\x16>'
tRp629
ag7
(g9
S'\x00\xb9\xfa='
tRp630
ag7
(g9
S'\x00+\xf0='
tRp631
ag7
(g9
S'\x00\xc8\xa0='
tRp632
ag7
(g9
S'\x00\xc0H='
tRp633
ag7
(g9
S'\x00(#='
tRp634
ag7
(g9
S'\x00\x18|='
tRp635
ag7
(g9
S'\x00`H<'
tRp636
ag7
(g9
S'\x00\x90\xa9<'
tRp637
ag7
(g9
S'\x00`\x17\xbc'
tRp638
ag7
(g9
S'\x00\xb0\x0e\xbc'
tRp639
ag7
(g9
S'\x00`\x9c<'
tRp640
ag7
(g9
S'\x00t\xce<'
tRp641
ag7
(g9
S'\x00\\\xf0<'
tRp642
ag7
(g9
S'\x00x`\xbc'
tRp643
ag7
(g9
S'\x00\xe8\xdd<'
tRp644
ag7
(g9
S'\x00~7='
tRp645
ag7
(g9
S'\x00\x08\x0e='
tRp646
ag7
(g9
S'\x00\x9ea='
tRp647
ag7
(g9
S'\x00b5='
tRp648
ag7
(g9
S'\x00rW>'
tRp649
ag7
(g9
S'\xe0\xd4\x10?'
tRp650
ag7
(g9
S'\xa0/Y?'
tRp651
ag7
(g9
S' \x1cu?'
tRp652
ag7
(g9
S'p\xa5\x91?'
tRp653
ag7
(g9
S'\xb0o\xfc?'
tRp654
ag7
(g9
S'\xd8L1@'
tRp655
ag7
(g9
S'\xc8sN@'
tRp656
ag7
(g9
S'\xfc(\x8d@'
tRp657
ag7
(g9
S'\x8c_\xde@'
tRp658
ag7
(g9
S'\x14.\xff@'
tRp659
ag7
(g9
S'n[4A'
tRp660
ag7
(g9
S'\xde\x9e\\A'
tRp661
ag7
(g9
S'\xbaEpA'
tRp662
ag7
(g9
S'Q\xbe\x96A'
tRp663
ag7
(g9
S'%\x96\xabA'
tRp664
ag7
(g9
S'\x7f\x98\xb6A'
tRp665
ag7
(g9
S'\x97\x1a\xd6A'
tRp666
ag7
(g9
S'\xb5\xdb\xe8A'
tRp667
ag7
(g9
S'3\xff\xf0A'
tRp668
ag7
(g9
S'\x98\xa8\x00B'
tRp669
ag7
(g9
S'\x08;\x0cB'
tRp670
ag7
(g9
S'\x90\xcc\x13B'
tRp671
ag7
(g9
S'n\xe3\x1aB'
tRp672
ag7
(g9
S'\xccc!B'
tRp673
ag7
(g9
S't\x0f)B'
tRp674
ag7
(g9
S'\x88I+B'
tRp675
ag7
(g9
S'\xd0\xcc1B'
tRp676
ag7
(g9
S'd\x9d5B'
tRp677
ag7
(g9
S'0\x937B'
tRp678
ag7
(g9
S'\xdcS<B'
tRp679
ag7
(g9
S'|s>B'
tRp680
ag7
(g9
S'\x9e\x8e>B'
tRp681
ag7
(g9
S'\x0c\xb1;B'
tRp682
ag7
(g9
S'\xc0_7B'
tRp683
ag7
(g9
S'p\xe51B'
tRp684
ag7
(g9
S'.k*B'
tRp685
ag7
(g9
S'\xf0\x7f!B'
tRp686
ag7
(g9
S'D\xf1\x17B'
tRp687
ag7
(g9
S'\xa2\x03\x0eB'
tRp688
ag7
(g9
S'b\x98\x03B'
tRp689
ag7
(g9
S'_ \xf1A'
tRp690
ag7
(g9
S'\xd9\x07\xd9A'
tRp691
ag7
(g9
S'\xb7g\xb3A'
tRp692
ag7
(g9
S'K\xc1\x9aA'
tRp693
ag7
(g9
S'\xa7\xc7\x82A'
tRp694
ag7
(g9
S'\xbe\x81oA'
tRp695
ag7
(g9
S'v\x08EA'
tRp696
ag7
(g9
S'\xf2\xe5\x1dA'
tRp697
ag7
(g9
S'\xe4\xd8\xd8@'
tRp698
ag7
(g9
S'\x84\xae\xa3@'
tRp699
ag7
(g9
S'h\xc5m@'
tRp700
ag7
(g9
S'(>-@'
tRp701
ag7
(g9
S'P\xab\xff?'
tRp702
ag7
(g9
S'\x10\x99\xbd?'
tRp703
ag7
(g9
S'P\x80\x8e?'
tRp704
ag7
(g9
S'\xe0\x8cI?'
tRp705
ag7
(g9
S'\x80w\x18?'
tRp706
ag7
(g9
S'\x80-\xdb>'
tRp707
ag7
(g9
S'\x80L\xab>'
tRp708
ag7
(g9
S'\xc0\xa5\x86>'
tRp709
ag7
(g9
S'\x80\x82\x10>'
tRp710
ag7
(g9
S'\x00:\xe9='
tRp711
ag7
(g9
S'\x00\xdf\x8d='
tRp712
ag7
(g9
S'\x00XT<'
tRp713
ag7
(g9
S'\x00\x00"\xba'
tRp714
ag7
(g9
S'\x00@_<'
tRp715
ag7
(g9
S'\x00\xb0A<'
tRp716
ag7
(g9
S'\x00\\\x8f<'
tRp717
ag7
(g9
S'\x00\xfc\x86\xbc'
tRp718
ag7
(g9
S'\x00@\xa7\xbc'
tRp719
ag7
(g9
S'\x00ps\xbc'
tRp720
ag7
(g9
S'\x00@\xb6\xbb'
tRp721
ag7
(g9
S'\x00\xb8\x03<'
tRp722
ag7
(g9
S'\x00\x00 \xbd'
tRp723
ag7
(g9
S'\x00\x8aK\xbd'
tRp724
ag7
(g9
S'\x00\nd\xbd'
tRp725
ag7
(g9
S'\x00\xe8\x08\xbd'
tRp726
ag7
(g9
S'\x00\x98\xa7\xbc'
tRp727
ag7
(g9
S'\x00\nU='
tRp728
ag7
(g9
S'\x00&\x8f>'
tRp729
ag7
(g9
S'\xa0`(?'
tRp730
ag7
(g9
S' \x85}?'
tRp731
ag7
(g9
S'\xf0.\x97?'
tRp732
ag7
(g9
S'\xb0\x8f\xfc?'
tRp733
ag7
(g9
S'hbB@'
tRp734
ag7
(g9
S'45\x91@'
tRp735
ag7
(g9
S'\xf4\xd4\xcd@'
tRp736
ag7
(g9
S'r\x1a\x0cA'
tRp737
ag7
(g9
S'Z\x054A'
tRp738
ag7
(g9
S'>\xc7]A'
tRp739
ag7
(g9
S'\xa9\xbc\x83A'
tRp740
ag7
(g9
S'\x8d\x19\x99A'
tRp741
ag7
(g9
S'\x1dF\xafA'
tRp742
ag7
(g9
S'\x1b\xc6\xd1A'
tRp743
ag7
(g9
S'Y\x01\xddA'
tRp744
ag7
(g9
S'g\xff\xf1A'
tRp745
ag7
(g9
S'\x14I\x02B'
tRp746
ag7
(g9
S'\xd4\xc2\x0eB'
tRp747
ag7
(g9
S'F\xcb\x12B'
tRp748
ag7
(g9
S'\xae\x11\x1fB'
tRp749
ag7
(g9
S't\xc3&B'
tRp750
ag7
(g9
S'\x9e\x9e*B'
tRp751
ag7
(g9
S'\xf8Q4B'
tRp752
ag7
(g9
S'\xe0e9B'
tRp753
ag7
(g9
S'\xb0+;B'
tRp754
ag7
(g9
S'\xe8R>B'
tRp755
ag7
(g9
S'\xb8\x9f?B'
tRp756
ag7
(g9
S'\x94\x86>B'
tRp757
ag7
(g9
S'\x04\xbc;B'
tRp758
ag7
(g9
S'bG7B'
tRp759
ag7
(g9
S'Lf1B'
tRp760
ag7
(g9
S'X\xd4)B'
tRp761
ag7
(g9
S'\xf4\xf1 B'
tRp762
ag7
(g9
S'$J\x17B'
tRp763
ag7
(g9
S'\xc81\x07B'
tRp764
ag7
(g9
S'=\x0e\xf7A'
tRp765
ag7
(g9
S'\xbf\xb2\xeaA'
tRp766
ag7
(g9
S'_#\xd2A'
tRp767
ag7
(g9
S'\xcdg\xbaA'
tRp768
ag7
(g9
S'\xc36\xa2A'
tRp769
ag7
(g9
S':P|A'
tRp770
ag7
(g9
S'\x02\xf5dA'
tRp771
ag7
(g9
S'\x16\x94%A'
tRp772
ag7
(g9
S'2\x14\x00A'
tRp773
ag7
(g9
S'\xb4)\xc1@'
tRp774
ag7
(g9
S'$\xc1\x8e@'
tRp775
ag7
(g9
S'\xe8\xe3Q@'
tRp776
ag7
(g9
S'(w\x1a@'
tRp777
ag7
(g9
S'h\xa7\x02@'
tRp778
ag7
(g9
S'P\xf7\xc1?'
tRp779
ag7
(g9
S'`pn?'
tRp780
ag7
(g9
S'\x00!\x15?'
tRp781
ag7
(g9
S'\xc0\xf8\xd8>'
tRp782
ag7
(g9
S'\x80\xf5\xad>'
tRp783
ag7
(g9
S'\x80?\x8b>'
tRp784
ag7
(g9
S'\x80QC>'
tRp785
ag7
(g9
S'\x005\xcf='
tRp786
ag7
(g9
S'\x00\x1b\xe5='
tRp787
ag7
(g9
S'\x00h\x9e='
tRp788
ag7
(g9
S'\x00RK='
tRp789
ag7
(g9
S'\x00([='
tRp790
ag7
(g9
S'\x00(\xd7<'
tRp791
ag7
(g9
S'\x00\xda\x12='
tRp792
ag7
(g9
S'\x008"<'
tRp793
ag7
(g9
S'\x00\x00\xa5\xb9'
tRp794
ag7
(g9
S'\x00\x0e\r='
tRp795
ag7
(g9
S'\x008v\xbc'
tRp796
ag7
(g9
S'\x00 7<'
tRp797
ag7
(g9
S'\x00\x9c\xcd\xbc'
tRp798
ag7
(g9
S'\x00.Y\xbd'
tRp799
ag7
(g9
S'\x00\xc5\xf9='
tRp800
ag7
(g9
S'`jA?'
tRp801
ag7
(g9
S'\x10\xc3\x85?'
tRp802
ag7
(g9
S'\xa8\xda\x04@'
tRp803
ag7
(g9
S'8\xcbJ@'
tRp804
ag7
(g9
S',\x87\x98@'
tRp805
ag7
(g9
S't\x10\xd3@'
tRp806
ag7
(g9
S'j\xfe\x08A'
tRp807
ag7
(g9
S'2u,A'
tRp808
ag7
(g9
S'\xc2\xa5QA'
tRp809
ag7
(g9
S'\xaa\x8euA'
tRp810
ag7
(g9
S'y\x17\x84A'
tRp811
ag7
(g9
S'\x13\xdf\x9dA'
tRp812
ag7
(g9
S'7c\xadA'
tRp813
ag7
(g9
S'+\x96\xbaA'
tRp814
ag7
(g9
S'\xa9C\xc6A'
tRp815
ag7
(g9
S'\xd5\x8f\xd1A'
tRp816
ag7
(g9
S'\xa5\xb8\xdcA'
tRp817
ag7
(g9
S'\xd7\xb9\xe5A'
tRp818
ag7
(g9
S'\x8d\xc6\xeeA'
tRp819
ag7
(g9
S'_]\xf8A'
tRp820
ag7
(g9
S'\xb8\xa9\x04B'
tRp821
ag7
(g9
S'\x86\xb5\nB'
tRp822
ag7
(g9
S'\xd6v\x11B'
tRp823
ag7
(g9
S'T\xf6\x14B'
tRp824
ag7
(g9
S'bu\x1aB'
tRp825
ag7
(g9
S'\x1e\xf3\x1eB'
tRp826
ag7
(g9
S'<\\#B'
tRp827
ag7
(g9
S'\xb2\xeb&B'
tRp828
ag7
(g9
S'\xa6\x88%B'
tRp829
ag7
(g9
S'\x9e\xe0!B'
tRp830
ag7
(g9
S'\xb6\x17\x1cB'
tRp831
ag7
(g9
S' H\x15B'
tRp832
ag7
(g9
S'\x9a\xbd\rB'
tRp833
ag7
(g9
S'\xdc\xfa\x05B'
tRp834
ag7
(g9
S'\x87)\xfcA'
tRp835
ag7
(g9
S'\x05\xaa\xebA'
tRp836
ag7
(g9
S'\xf7\xc6\xd9A'
tRp837
ag7
(g9
S'\x81A\xc5A'
tRp838
ag7
(g9
S'#\xdd\xaeA'
tRp839
ag7
(g9
S'\xa7[\x97A'
tRp840
ag7
(g9
S'\xd7T\x80A'
tRp841
ag7
(g9
S'\x96FTA'
tRp842
ag7
(g9
S'n\xf6\x16A'
tRp843
ag7
(g9
S'\xf45\xe9@'
tRp844
ag7
(g9
S'\xb4P\xb1@'
tRp845
ag7
(g9
S'\xdc\x06\x84@'
tRp846
ag7
(g9
S'\xf8\x89e@'
tRp847
ag7
(g9
S'\x98A(@'
tRp848
ag7
(g9
S'P\xd4\xd3?'
tRp849
ag7
(g9
S'P\xa7\x9e?'
tRp850
ag7
(g9
S'\xe0of?'
tRp851
ag7
(g9
S'`\xe6J?'
tRp852
ag7
(g9
S'\x00\xd6\xec>'
tRp853
ag7
(g9
S'\xc0]\xcc>'
tRp854
ag7
(g9
S'@,\x91>'
tRp855
ag7
(g9
S'\x80\xed:>'
tRp856
ag7
(g9
S'\x80\x03.>'
tRp857
ag7
(g9
S'\x00W\xa6='
tRp858
ag7
(g9
S'\x00w\x9f='
tRp859
ag7
(g9
S'\x00\xecm='
tRp860
ag7
(g9
S'\x00\xc4\x1f='
tRp861
ag7
(g9
S'\x00\x10\xbb<'
tRp862
ag7
(g9
S'\x00|\xeb<'
tRp863
ag7
(g9
S'\x00@\xf3\xbb'
tRp864
ag7
(g9
S'\x00\xb8n<'
tRp865
ag7
(g9
S'\x00 \x05\xbc'
tRp866
ag7
(g9
S'\x00p\xc4<'
tRp867
ag7
(g9
S'\x00\xa2[='
tRp868
ag7
(g9
S'\x00 \xdc\xbb'
tRp869
ag7
(g9
S'\x00\x08\x05\xbc'
tRp870
ag7
(g9
S'\x00\x18g<'
tRp871
ag7
(g9
S'\x00\xc0\xe5:'
tRp872
ag7
(g9
S'\x00\xf0\xb7<'
tRp873
ag7
(g9
S'\x00(p<'
tRp874
ag7
(g9
S'\x00\x00\xd5;'
tRp875
ag7
(g9
S'\x00\x90\xe6;'
tRp876
ag7
(g9
S'\x00(\xfe\xbc'
tRp877
ag7
(g9
S'\x00t\xac<'
tRp878
ag7
(g9
S'\x00\x1c\x19='
tRp879
ag7
(g9
S'\x80A\xec>'
tRp880
ag7
(g9
S'`\xd8~?'
tRp881
ag7
(g9
S'\x10\x92\xc8?'
tRp882
ag7
(g9
S'\xb8\x97 @'
tRp883
ag7
(g9
S'\xc8\xd1}@'
tRp884
ag7
(g9
S'l\xa9\xbe@'
tRp885
ag7
(g9
S'\xa6\xbb\x03A'
tRp886
ag7
(g9
S'B\x12)A'
tRp887
ag7
(g9
S'\x8e\x94RA'
tRp888
ag7
(g9
S'\x05\x0c\x80A'
tRp889
ag7
(g9
S'!;\x97A'
tRp890
ag7
(g9
S'\xe3\x11\xadA'
tRp891
ag7
(g9
S'\x15\xec\xc9A'
tRp892
ag7
(g9
S'\xe1\xa7\xd1A'
tRp893
ag7
(g9
S'A\xe8\xdeA'
tRp894
ag7
(g9
S'S\xed\xe8A'
tRp895
ag7
(g9
S"'x\xf2A"
tRp896
ag7
(g9
S'y\xe2\xfbA'
tRp897
ag7
(g9
S'\x168\x02B'
tRp898
ag7
(g9
S'v\xb8\x08B'
tRp899
ag7
(g9
S'\x96R\x0cB'
tRp900
ag7
(g9
S'\x10\xfb\x0fB'
tRp901
ag7
(g9
S',\xca\x13B'
tRp902
ag7
(g9
S':y\x18B'
tRp903
ag7
(g9
S'\\C\x1dB'
tRp904
ag7
(g9
S'\x9a\x1a"B'
tRp905
ag7
(g9
S'\x9eV&B'
tRp906
ag7
(g9
S'`\x0b*B'
tRp907
ag7
(g9
S'j\xa9+B'
tRp908
ag7
(g9
S'(\x8e,B'
tRp909
ag7
(g9
S'\x82\x13(B'
tRp910
ag7
(g9
S'4\x15\x1fB'
tRp911
ag7
(g9
S'\x8a6\x0bB'
tRp912
ag7
(g9
S'\xd1\xa0\xf6A'
tRp913
ag7
(g9
S'5H\xd6A'
tRp914
ag7
(g9
S';\x9c\xc6A'
tRp915
ag7
(g9
S';\xcd\xa7A'
tRp916
ag7
(g9
S'\x91\xd8\x8bA'
tRp917
ag7
(g9
S'\x82GfA'
tRp918
ag7
(g9
S"\x027'A"
tRp919
ag7
(g9
S'FB\x04A'
tRp920
ag7
(g9
S'\x04M\xcc@'
tRp921
ag7
(g9
S'\x04X\x98@'
tRp922
ag7
(g9
S'\xa8)]@'
tRp923
ag7
(g9
S'(\xb5\x1f@'
tRp924
ag7
(g9
S'\xb0\xdc\xea?'
tRp925
ag7
(g9
S'\x10\x87\xac?'
tRp926
ag7
(g9
S'0\xbc\x82?'
tRp927
ag7
(g9
S"\xe0'G?"
tRp928
ag7
(g9
S'\xe0\\\x16?'
tRp929
ag7
(g9
S'\xc0\x19\xd6>'
tRp930
ag7
(g9
S'\x80\r\x9e>'
tRp931
ag7
(g9
S'\x80\xd94>'
tRp932
ag7
(g9
S'\x00\xfa\x04>'
tRp933
ag7
(g9
S'\x00\x83\xfc='
tRp934
ag7
(g9
S'\x00\x9f\xda='
tRp935
ag7
(g9
S'\x00\xad\xb4='
tRp936
ag7
(g9
S'\x00\xe4\xf2<'
tRp937
ag7
(g9
S'\x00\xe8\xd4<'
tRp938
ag7
(g9
S'\x00\xd4\x00='
tRp939
ag7
(g9
S'\x00\xdey='
tRp940
ag7
(g9
S'\x00\x94\x9c='
tRp941
ag7
(g9
S'\x00\xb0\xf0<'
tRp942
ag7
(g9
S'\x00\xf0\x88<'
tRp943
ag7
(g9
S'\x00\x0c\xf6<'
tRp944
ag7
(g9
S'\x00u\x08>'
tRp945
ag7
(g9
S'\x00\xbcX>'
tRp946
ag7
(g9
S'\x80?o>'
tRp947
ag7
(g9
S'\x00\xbeX>'
tRp948
ag7
(g9
S'\x80{[>'
tRp949
ag7
(g9
S'\x80\xa9\x89>'
tRp950
ag7
(g9
S'\x00g\xc6>'
tRp951
ag7
(g9
S'\xa0\x96\x1d?'
tRp952
ag7
(g9
S'P\x9d\x88?'
tRp953
ag7
(g9
S'\x90\xea\xb3?'
tRp954
ag7
(g9
S'\x08~3@'
tRp955
ag7
(g9
S'\xecV\x80@'
tRp956
ag7
(g9
S'l&\xaf@'
tRp957
ag7
(g9
S'\xf4\x1e\xe6@'
tRp958
ag7
(g9
S'\x9e\xa2\x10A'
tRp959
ag7
(g9
S'\xe2L0A'
tRp960
ag7
(g9
S'F\xa5PA'
tRp961
ag7
(g9
S'\x8e\xe5`A'
tRp962
ag7
(g9
S'\xa2/}A'
tRp963
ag7
(g9
S'\xe5\xe2\x8aA'
tRp964
ag7
(g9
S'g\xbe\x9bA'
tRp965
ag7
(g9
S's\x04\xa6A'
tRp966
ag7
(g9
S'm\xd0\xb1A'
tRp967
ag7
(g9
S'\x07\x8b\xbfA'
tRp968
ag7
(g9
S'\x03\xa7\xcfA'
tRp969
ag7
(g9
S'#\x9b\xe1A'
tRp970
ag7
(g9
S'\xbd!\xf3A'
tRp971
ag7
(g9
S'j\xe9\x01B'
tRp972
ag7
(g9
S'\xfa\xd5\x0cB'
tRp973
ag7
(g9
S'\x10\xba\x12B'
tRp974
ag7
(g9
S'\x8a\x8a\x15B'
tRp975
ag7
(g9
S'\xaaJ\x1bB'
tRp976
ag7
(g9
S'\xa6\xc5\x1dB'
tRp977
ag7
(g9
S'\x8a\xf0\x1eB'
tRp978
ag7
(g9
S'$m\x1eB'
tRp979
ag7
(g9
S'\x0c\x93\x1cB'
tRp980
ag7
(g9
S'\xba~\x18B'
tRp981
ag7
(g9
S'\xc4\xe5\x11B'
tRp982
ag7
(g9
S'\x8a\xf9\x08B'
tRp983
ag7
(g9
S'm\xd7\xfbA'
tRp984
ag7
(g9
S'\xdb \xd7A'
tRp985
ag7
(g9
S'\xfdR\xbcA'
tRp986
ag7
(g9
S'\x0bA\xa1A'
tRp987
ag7
(g9
S'S\x1b\x94A'
tRp988
ag7
(g9
S'\xc6`\\A'
tRp989
ag7
(g9
S'\xdam0A'
tRp990
ag7
(g9
S'\x1a\x0f\tA'
tRp991
ag7
(g9
S'\xf4\x97\xcc@'
tRp992
ag7
(g9
S'\xbcJ\x94@'
tRp993
asS'adc'
p994
(lp995
F1023
aF1023
aF1023
aF1023
aF1023
aF1023
aF1023
aF1023
aF1023
aF1023
aF1023
aF1023
aF1023
aF1023
aF1023
aF1023
aF1023
aF1023
aF1023
aF1023
aF1023
aF1023
aF1023
aF1023
aF1023
aF1023
aF1023
aF1023
aF1023
aF1023
aF1023
aF1023
aF1023
aF1023
aF1023
aF1023
aF1023
aF1023
aF1023
aF1023
aF1023
aF1023
aF1023
aF1023
aF1023
aF1023
aF1023
aF1023
aF1023
aF1023
aF1019
aF992
aF943
aF861
aF722
aF616
aF551
aF448
aF363
aF315
aF269
aF241
aF218
aF195
aF180
aF164
aF152
aF153
aF172
aF147
aF128
aF164
aF121
aF128
aF137
aF149
aF139
aF140
aF133
aF161
aF149
aF140
aF130
aF198
aF140
aF157
aF171
aF216
aF240
aF309
aF401
aF415
aF449
aF498
aF558
aF640
aF713
aF768
aF789
aF783
aF780
aF784
aF773
aF768
aF776
aF789
aF774
aF770
aF765
aF755
aF733
aF715
aF700
aF679
aF641
aF594
aF556
aF496
aF439
aF380
aF312
aF256
aF229
aF208
aF200
aF188
aF175
aF174
aF171
aF143
aF146
aF154
aF185
aF160
aF115
aF126
aF105
aF128
aF134
aF133
aF135
aF94
aF121
aF133
aF139
aF130
aF123
aF138
aF138
aF125
aF137
aF154
aF178
aF204
aF239
aF295
aF356
aF398
aF432
aF450
aF470
aF481
aF491
aF767
aF803
aF837
aF846
aF847
aF862
aF876
aF881
aF881
aF882
aF875
aF862
aF849
aF824
aF817
aF817
aF820
aF819
aF813
aF809
aF778
aF710
aF629
aF564
aF469
aF384
aF308
aF258
aF221
aF195
aF171
aF164
aF145
aF135
aF122
aF116
aF111
aF107
aF102
aF98
aF96
aF94
aF92
aF90
aF88
aF87
aF86
aF85
aF85
aF85
aF86
aF88
aF91
aF95
aF99
aF106
aF115
aF130
aF154
aF180
aF264
aF340
aF450
aF562
aF658
aF699
aF796
aF828
aF810
aF806
aF800
aF796
aF793
aF791
aF791
aF792
aF792
aF791
aF789
aF787
aF786
aF788
aF751
aF726
aF703
aF674
aF633
aF604
aF599
aF582
aF555
aF529
aF508
aF474
aF452
aF375
aF351
aF271
aF222
aF197
aF177
aF165
aF151
aF136
aF163
aF135
aF123
aF123
aF103
aF99
aF102
aF116
aF106
aF101
aF103
aF99
aF100
aF110
aF109
aF108
aF96
aF87
aF89
aF98
aF100
aF112
aF164
aF182
aF208
aF226
aF261
aF331
aF415
aF558
aF658
aF718
aF784
aF844
aF851
aF853
aF872
aF884
aF895
aF897
aF899
aF892
aF890
aF891
aF900
aF911
aF922
aF930
aF943
aF948
aF952
aF946
aF940
aF946
aF949
aF947
aF937
aF940
aF934
aF927
aF924
aF911
aF882
aF777
aF691
aF571
aF404
aF308
aF253
aF206
aF161
aF144
aF148
aF125
aF122
aF115
aF108
aF131
aF116
aF120
aF151
aF111
aF98
aF134
aF113
aF116
aF113
aF112
aF108
aF102
aF119
aF101
aF125
aF134
aF115
aF127
aF185
aF155
aF158
aF183
aF204
aF230
aF261
aF297
aF339
aF407
aF447
aF473
aF503
aF514
aF511
aF509
aF503
aF502
aF500
aF501
aF500
aF500
aF500
aF498
aF497
aF496
aF495
aF495
aF495
aF494
aF493
aF493
aF492
aF492
aF491
aF489
aF483
aF463
aF437
aF420
aF386
aF326
aF274
aF231
aF202
aF182
aF164
aF151
aF140
aF132
aF124
aF120
aF116
aF113
aF110
aF107
aF105
aF103
aF116
aF124
aF113
aF112
aF119
aF111
aF110
aF111
aF110
aF109
aF110
aF122
aF122
aF114
aF144
aF127
aF127
aF140
aF154
aF179
aF210
aF274
aF373
aF452
aF545
aF649
aF787
aF852
aF880
aF880
aF878
aF877
aF875
aF873
aF874
aF874
aF876
aF876
aF876
aF875
aF877
aF877
aF877
aF877
aF877
aF877
aF877
aF877
aF878
aF879
aF878
aF879
aF876
aF851
aF815
aF803
aF789
aF683
aF527
aF416
aF326
aF270
aF248
aF214
aF180
aF165
aF154
aF143
aF135
aF128
aF122
aF117
aF110
aF105
aF97
aF102
aF119
aF104
aF116
aF97
aF94
aF115
aF103
aF91
aF100
aF95
aF91
aF91
aF92
aF95
aF96
aF99
aF104
aF114
aF126
aF145
aF173
aF255
aF378
aF614
aF772
aF799
aF888
aF886
aF881
aF879
aF879
aF880
aF880
aF879
aF879
aF878
aF877
aF878
aF879
aF879
aF880
aF879
aF879
aF879
aF878
aF878
aF878
aF878
aF879
aF879
aF879
aF877
aF875
aF873
aF870
aF869
aF868
aF868
aF866
aF864
aF860
aF852
aF839
aF826
aF719
aF613
aF498
aF388
aF306
aF256
aF223
aF192
aF169
aF152
aF138
aF129
aF125
aF118
aF112
aF104
aF102
aF99
aF97
aF94
aF93
aF92
aF91
aF90
aF89
aF89
aF89
aF89
aF89
aF89
aF90
aF91
aF92
aF93
aF98
aF104
aF111
aF120
aF135
aF159
aF201
aF274
aF387
aF566
aF788
aF921
aF897
aF891
aF888
aF887
aF887
aF887
aF888
aF886
aF884
aF883
aF883
aF883
aF883
aF883
aF882
aF882
aF881
aF881
aF882
aF881
aF881
aF882
aF881
aF880
aF879
aF879
aF879
aF878
aF878
aF878
aF878
aF765
aF724
aF728
aF735
aF654
aF545
aF478
aF394
aF306
aF246
aF201
aF176
aF157
aF143
aF134
aF123
aF115
aF109
aF107
aF104
aF102
aF99
aF97
aF96
aF95
aF94
aF93
aF92
aF92
aF91
aF91
aF90
aF90
aF91
aF91
aF92
aF94
aF96
aF99
aF102
aF106
aF114
aF126
aF142
aF163
aF198
aF252
aF359
aF459
aF602
aF812
aF883
aF883
aF875
aF871
aF870
aF869
aF869
aF870
aF871
aF869
aF869
aF869
aF869
aF869
aF869
aF869
aF869
aF869
aF869
aF869
aF868
aF868
aF867
aF867
aF867
aF868
aF868
aF858
aF796
aF721
aF709
aF707
aF634
aF484
aF372
aF284
aF222
aF189
aF166
aF155
aF144
aF127
aF120
aF113
aF109
aF106
aF104
aF102
aF99
aF97
aF96
aF94
aF93
aF92
aF92
aF92
aF91
aF92
aF92
aF93
aF93
aF96
aF98
aF101
aF105
aF112
aF120
aF132
aF152
aF162
aF201
aF267
aF373
aF617
aF757
aF876
aF871
aF866
aF865
aF865
aF863
aF864
aF863
aF863
aF863
aF864
aF871
aF872
aF873
aF870
aF866
aF865
aF866
aF870
aF871
aF870
aF868
aF865
aF865
aF865
aF784
aF635
aF581
aF527
aF355
aF288
aF251
aF210
aF191
aF178
aF171
aF148
aF133
aF126
aF123
aF120
aF116
aF113
aF112
aF109
aF106
aF104
aF101
aF98
aF96
aF96
aF95
aF94
aF94
aF95
aF96
aF97
aF99
aF111
aF124
aF119
aF141
aF125
aF152
aF173
aF205
aF260
aF326
aF468
aF582
aF674
aF776
aF873
aF860
aF855
aF854
aF853
aF859
aF860
aF860
aF859
aF859
aF859
aF859
aF859
aF861
aF863
aF865
aF866
aF866
aF865
aF862
aF863
aF861
aF860
aF859
aF859
aF858
aF859
aF858
aF858
aF858
aF857
aF857
aF827
aF712
aF648
aF547
aF407
aF284
aF224
aF195
aF170
aF149
aF135
aF128
aF118
aF135
aF128
aF120
aF126
aF121
aF114
aF107
aF128
aF120
aF106
aF110
aF112
aF126
aF156
aF130
aF120
aF126
aF127
aF128
aF124
aF112
aF122
aF136
aF161
aF194
aF234
aF303
aF391
aF524
aF710
aF953
aF922
aF906
aF902
aF900
aF897
aF896
aF897
aF895
aF894
aF894
aF892
aF892
aF894
aF895
aF894
aF892
aF890
aF890
aF888
aF888
aF892
aF874
aF866
aF863
aF864
aF866
aF862
aF855
aF836
aF773
aF629
aF516
aF456
aF317
aF269
aF231
aF203
aF176
aF162
aF155
aF145
aF142
aF138
aF133
aF126
aF147
aF124
aF106
aF101
aF105
aF110
aF105
aF105
aF105
aF110
aF110
aF113
aF116
aF116
aF118
aF123
aF129
aF134
aF155
aF183
aF227
aF274
aF400
aF549
aF791
aF955
aF912
as.